MPLINK 4.48, Linker
Linker Map File - Created Mon Nov 25 15:09:31 2013

                                 Section Info
                  Section       Type    Address   Location Size(Bytes)
                ---------  ---------  ---------  ---------  ---------
               _entry_scn       code   0x000000    program   0x000006
           .code___init.o       code   0x000006    program   0x000002
               highVector       code   0x000008    program   0x000006
          .code_adcbusy.o       code   0x00000e    program   0x00000a
                lowVector       code   0x000018    program   0x000006
                   .cinit    romdata   0x00001e    program   0x0000c2
              .code_TCP.o       code   0x0000e0    program   0x005c1c
             .code_Node.o       code   0x005cfc    program   0x0029be
      .code_BerkeleyAPI.o       code   0x0086ba    program   0x001cc4
              .code_UDP.o       code   0x00a37e    program   0x0012c8
          .code_Helpers.o       code   0x00b646    program   0x000fba
         .code_ETH97J60.o       code   0x00c600    program   0x000da0
             .code_DHCP.o       code   0x00d3a0    program   0x000c70
    .code_NodeUDPClient.o       code   0x00e010    program   0x00095e
                     PROG       code   0x00e96e    program   0x0006a0
              .code_ARP.o       code   0x00f00e    program   0x0005c2
           .code_sincos.o       code   0x00f5d0    program   0x0005aa
        .code_MPL3115A2.o       code   0x00fb7a    program   0x000580
               .code_IP.o       code   0x0100fa    program   0x0003fa
   .code_NodeTCPClient0.o       code   0x0104f4    program   0x000386
       .code_I2CHelpers.o       code   0x01087a    program   0x00035c
         .code_Announce.o       code   0x010bd6    program   0x00034e
   .code_NodeTCPClient1.o       code   0x010f24    program   0x00034c
    .code_NodeUDPServer.o       code   0x011270    program   0x0002ca
         .code_StackTsk.o       code   0x01153a    program   0x0002a4
          .code_MCP9808.o       code   0x0117de    program   0x00027a
            .code_Setup.o       code   0x011a58    program   0x00022e
                   STRING       code   0x011c86    program   0x000210
         .code_7segment.o       code   0x011e96    program   0x00020a
             .code_Tick.o       code   0x0120a0    program   0x000148
             .code_ICMP.o       code   0x0121e8    program   0x000146
                   STDLIB       code   0x01232e    program   0x000134
         .code_UnpkMath.o       code   0x012462    program   0x00011c
         .code_HIH-5031.o       code   0x01257e    program   0x00010c
             .code_Main.o       code   0x01268a    program   0x0000fa
               _cinit_scn       code   0x012784    program   0x00009e
          .code_Sensors.o       code   0x012822    program   0x00008a
         .code_i2c1writ.o       code   0x0128ac    program   0x000080
          .code_adcopen.o       code   0x01292c    program   0x00006e
             .code_fabs.o       code   0x01299a    program   0x000066
              .code_sin.o       code   0x012a00    program   0x000050
         .code_fxd3232u.o       code   0x012a50    program   0x000048
           .code_t2open.o       code   0x012a98    program   0x000036
         .code_i2c1open.o       code   0x012ace    program   0x000036
         .code_fxd1616u.o       code   0x012b04    program   0x00002c
                    .code       code   0x012b30    program   0x00002c
             .stringtable    romdata   0x012b5c    program   0x000028
             _startup_scn       code   0x012b84    program   0x000020
         .code_i2c1read.o       code   0x012ba4    program   0x00001a
           .romdata_TCP.o    romdata   0x012bbe    program   0x00000c
          .code_adcconv.o       code   0x012bca    program   0x000004
      .idata_fxd3232u.o_i    romdata   0x012bce    program   0x000000
      .romdata_fxd3232u.o    romdata   0x012bce    program   0x000000
      .romdata_fxd1616u.o    romdata   0x012bce    program   0x000000
      .idata_fxd1616u.o_i    romdata   0x012bce    program   0x000000
       .romdata_adcconv.o    romdata   0x012bce    program   0x000000
       .idata_adcconv.o_i    romdata   0x012bce    program   0x000000
       .romdata_adcbusy.o    romdata   0x012bce    program   0x000000
       .idata_adcbusy.o_i    romdata   0x012bce    program   0x000000
         .romdata_Setup.o    romdata   0x012bce    program   0x000000
      .romdata_7segment.o    romdata   0x012bce    program   0x000000
        .idata_c018iz.o_i    romdata   0x012bce    program   0x000000
          .romdata_fabs.o    romdata   0x012bce    program   0x000000
          .idata_fabs.o_i    romdata   0x012bce    program   0x000000
         .romdata_errno.o    romdata   0x012bce    program   0x000000
         .idata_errno.o_i    romdata   0x012bce    program   0x000000
      .romdata_UnpkMath.o    romdata   0x012bce    program   0x000000
      .idata_UnpkMath.o_i    romdata   0x012bce    program   0x000000
        .romdata_sincos.o    romdata   0x012bce    program   0x000000
        .idata_sincos.o_i    romdata   0x012bce    program   0x000000
           .romdata_sin.o    romdata   0x012bce    program   0x000000
           .idata_sin.o_i    romdata   0x012bce    program   0x000000
        .romdata_c018iz.o    romdata   0x012bce    program   0x000000
        .romdata___init.o    romdata   0x012bce    program   0x000000
        .idata___init.o_i    romdata   0x012bce    program   0x000000
      .romdata_i2c1writ.o    romdata   0x012bce    program   0x000000
      .idata_i2c1writ.o_i    romdata   0x012bce    program   0x000000
      .romdata_i2c1read.o    romdata   0x012bce    program   0x000000
      .idata_i2c1read.o_i    romdata   0x012bce    program   0x000000
        .romdata_t2open.o    romdata   0x012bce    program   0x000000
        .idata_t2open.o_i    romdata   0x012bce    program   0x000000
      .romdata_i2c1open.o    romdata   0x012bce    program   0x000000
      .idata_i2c1open.o_i    romdata   0x012bce    program   0x000000
       .romdata_adcopen.o    romdata   0x012bce    program   0x000000
       .idata_adcopen.o_i    romdata   0x012bce    program   0x000000
 .romdata_NodeUDPClient.o    romdata   0x012bce    program   0x000000
        .romdata_Reboot.o    romdata   0x012bce    program   0x000000
            .romdata_IP.o    romdata   0x012bce    program   0x000000
          .romdata_ICMP.o    romdata   0x012bce    program   0x000000
       .romdata_Helpers.o    romdata   0x012bce    program   0x000000
      .romdata_ETH97J60.o    romdata   0x012bce    program   0x000000
          .romdata_DHCP.o    romdata   0x012bce    program   0x000000
 .romdata_NodeUDPServer.o    romdata   0x012bce    program   0x000000
         .romdata_Delay.o    romdata   0x012bce    program   0x000000
     .romdata_MPL3115A2.o    romdata   0x012bce    program   0x000000
   .romdata_BerkeleyAPI.o    romdata   0x012bce    program   0x000000
           .romdata_ARP.o    romdata   0x012bce    program   0x000000
       .romdata_MCP9808.o    romdata   0x012bce    program   0x000000
      .romdata_Announce.o    romdata   0x012bce    program   0x000000
       .romdata_Sensors.o    romdata   0x012bce    program   0x000000
      .romdata_HIH-5031.o    romdata   0x012bce    program   0x000000
    .romdata_I2CHelpers.o    romdata   0x012bce    program   0x000000
          .romdata_Node.o    romdata   0x012bce    program   0x000000
      .romdata_StackTsk.o    romdata   0x012bce    program   0x000000
          .romdata_Main.o    romdata   0x012bce    program   0x000000
           .romdata_UDP.o    romdata   0x012bce    program   0x000000
.romdata_NodeTCPClient0.o    romdata   0x012bce    program   0x000000
.romdata_NodeTCPClient1.o    romdata   0x012bce    program   0x000000
           .idata_UDP.o_i    romdata   0x012bce    program   0x000002
          .romdata_Tick.o    romdata   0x012bce    program   0x000000
          .idata_Tick.o_i    romdata   0x012bd0    program   0x000004
           .idata_TCP.o_i    romdata   0x012bd4    program   0x000002
      .idata_StackTsk.o_i    romdata   0x012bd6    program   0x000001
 .idata_NodeUDPServer.o_i    romdata   0x012bd7    program   0x000004
         .idata_Setup.o_i    romdata   0x012bd7    program   0x000000
       .idata_Sensors.o_i    romdata   0x012bd7    program   0x000000
        .idata_Reboot.o_i    romdata   0x012bd7    program   0x000000
 .idata_NodeUDPClient.o_i    romdata   0x012bdb    program   0x000004
.idata_NodeTCPClient1.o_i    romdata   0x012bdf    program   0x000003
.idata_NodeTCPClient0.o_i    romdata   0x012be2    program   0x000001
          .idata_Node.o_i    romdata   0x012be3    program   0x000018
     .idata_MPL3115A2.o_i    romdata   0x012bfb    program   0x000004
          .idata_Main.o_i    romdata   0x012bfb    program   0x000000
       .idata_MCP9808.o_i    romdata   0x012bff    program   0x000000
            .idata_IP.o_i    romdata   0x012bff    program   0x000002
       .idata_Helpers.o_i    romdata   0x012c01    program   0x000004
          .idata_ICMP.o_i    romdata   0x012c01    program   0x000000
    .idata_I2CHelpers.o_i    romdata   0x012c01    program   0x000000
      .idata_HIH-5031.o_i    romdata   0x012c05    program   0x000000
         .idata_Delay.o_i    romdata   0x012c05    program   0x000000
          .idata_DHCP.o_i    romdata   0x012c05    program   0x000001
      .idata_ETH97J60.o_i    romdata   0x012c05    program   0x000000
   .idata_BerkeleyAPI.o_i    romdata   0x012c06    program   0x000002
      .idata_Announce.o_i    romdata   0x012c08    program   0x000001
           .idata_ARP.o_i    romdata   0x012c09    program   0x000001
            .code_Delay.o       code   0x012c0a    program   0x000000
           .code_Reboot.o       code   0x012c0a    program   0x000000
           .code_c018iz.o       code   0x012c0a    program   0x000000
            .code_errno.o       code   0x012c0a    program   0x000000
      .idata_7segment.o_i    romdata   0x012c0a    program   0x000000
    .config_1fff8_Setup.o    romdata   0x01fff8    program   0x000001
    .config_1fff9_Setup.o    romdata   0x01fff9    program   0x000001
    .config_1fffa_Setup.o    romdata   0x01fffa    program   0x000001
    .config_1fffd_Setup.o    romdata   0x01fffd    program   0x000001
                 .tmpdata      udata   0x000000       data   0x00001e
                MATH_DATA      udata   0x00001e       data   0x000014
        eniac_datastructs      udata   0x000060       data   0x0004c1
   .udata_NodeUDPClient.o      udata   0x000521       data   0x0000b8
            .udata_DHCP.o      udata   0x0005d9       data   0x00001c
        .udata_StackTsk.o      udata   0x0005f5       data   0x00000b
             .udata_UDP.o      udata   0x000600       data   0x0000ad
             .udata_TCP.o      udata   0x0006ad       data   0x000051
           .udata_errno.o      udata   0x0006fe       data   0x000002
                 BSD_uRAM      udata   0x000700       data   0x000069
                 TCB_uRAM      udata   0x000769       data   0x000038
           .udata_Setup.o      udata   0x0007a1       data   0x000033
            .idata_Node.o      idata   0x0007d4       data   0x000018
             .udata_ARP.o      udata   0x0007ec       data   0x000014
  .udata_NodeTCPClient0.o      udata   0x000800       data   0x00000e
          .udata_c018iz.o      udata   0x00080e       data   0x00000a
        .udata_ETH97J60.o      udata   0x000818       data   0x000007
            .udata_Tick.o      udata   0x00081f       data   0x000006
        .udata_7segment.o      udata   0x000825       data   0x000005
         .udata_Helpers.o      udata   0x00082a       data   0x000004
     .udata_BerkeleyAPI.o      udata   0x00082e       data   0x000004
            .idata_Tick.o      idata   0x000832       data   0x000004
   .idata_NodeUDPServer.o      idata   0x000836       data   0x000004
   .idata_NodeUDPClient.o      idata   0x00083a       data   0x000004
       .idata_MPL3115A2.o      idata   0x00083e       data   0x000004
         .idata_Helpers.o      idata   0x000842       data   0x000004
  .udata_NodeTCPClient1.o      udata   0x000846       data   0x000003
  .idata_NodeTCPClient1.o      idata   0x000849       data   0x000003
      .udata_I2CHelpers.o      udata   0x00084c       data   0x000002
             .idata_UDP.o      idata   0x00084e       data   0x000002
             .idata_TCP.o      idata   0x000850       data   0x000002
              .idata_IP.o      idata   0x000852       data   0x000002
     .idata_BerkeleyAPI.o      idata   0x000854       data   0x000002
              .udata_IP.o      udata   0x000856       data   0x000001
        .udata_Announce.o      udata   0x000857       data   0x000001
        .idata_StackTsk.o      idata   0x000858       data   0x000001
  .idata_NodeTCPClient0.o      idata   0x000859       data   0x000001
            .idata_DHCP.o      idata   0x00085a       data   0x000001
        .idata_Announce.o      idata   0x00085b       data   0x000001
             .idata_ARP.o      idata   0x00085c       data   0x000001
        .udata_UnpkMath.o      udata   0x00085d       data   0x000000
          .idata_sincos.o      idata   0x00085d       data   0x000000
          .udata_sincos.o      udata   0x00085d       data   0x000000
             .idata_sin.o      idata   0x00085d       data   0x000000
             .udata_sin.o      udata   0x00085d       data   0x000000
          .idata___init.o      idata   0x00085d       data   0x000000
          .udata___init.o      udata   0x00085d       data   0x000000
        .idata_i2c1writ.o      idata   0x00085d       data   0x000000
        .udata_i2c1writ.o      udata   0x00085d       data   0x000000
        .idata_i2c1read.o      idata   0x00085d       data   0x000000
        .udata_i2c1read.o      udata   0x00085d       data   0x000000
          .idata_t2open.o      idata   0x00085d       data   0x000000
          .udata_t2open.o      udata   0x00085d       data   0x000000
        .idata_i2c1open.o      idata   0x00085d       data   0x000000
         .udata_adcbusy.o      udata   0x00085d       data   0x000000
        .udata_i2c1open.o      udata   0x00085d       data   0x000000
         .idata_adcbusy.o      idata   0x00085d       data   0x000000
         .udata_adcconv.o      udata   0x00085d       data   0x000000
         .idata_adcconv.o      idata   0x00085d       data   0x000000
         .idata_adcopen.o      idata   0x00085d       data   0x000000
        .udata_fxd1616u.o      udata   0x00085d       data   0x000000
        .idata_fxd1616u.o      idata   0x00085d       data   0x000000
        .udata_fxd3232u.o      udata   0x00085d       data   0x000000
        .idata_fxd3232u.o      idata   0x00085d       data   0x000000
         .udata_adcopen.o      udata   0x00085d       data   0x000000
           .udata_Delay.o      udata   0x00085d       data   0x000000
           .idata_Delay.o      idata   0x00085d       data   0x000000
        .idata_ETH97J60.o      idata   0x00085d       data   0x000000
         .idata_Sensors.o      idata   0x00085d       data   0x000000
         .udata_Sensors.o      udata   0x00085d       data   0x000000
            .udata_ICMP.o      udata   0x00085d       data   0x000000
            .idata_ICMP.o      idata   0x00085d       data   0x000000
          .udata_Reboot.o      udata   0x00085d       data   0x000000
          .idata_Reboot.o      idata   0x00085d       data   0x000000
        .idata_HIH-5031.o      idata   0x00085d       data   0x000000
        .udata_HIH-5031.o      udata   0x00085d       data   0x000000
      .idata_I2CHelpers.o      idata   0x00085d       data   0x000000
         .idata_MCP9808.o      idata   0x00085d       data   0x000000
         .udata_MCP9808.o      udata   0x00085d       data   0x000000
       .udata_MPL3115A2.o      udata   0x00085d       data   0x000000
            .idata_fabs.o      idata   0x00085d       data   0x000000
            .udata_Main.o      udata   0x00085d       data   0x000000
            .idata_Main.o      idata   0x00085d       data   0x000000
        .idata_7segment.o      idata   0x00085d       data   0x000000
            .udata_fabs.o      udata   0x00085d       data   0x000000
           .idata_Setup.o      idata   0x00085d       data   0x000000
           .idata_errno.o      idata   0x00085d       data   0x000000
          .idata_c018iz.o      idata   0x00085d       data   0x000000
        .idata_UnpkMath.o      idata   0x00085d       data   0x000000
                   .stack      udata   0x000d00       data   0x000100
            .udata_Node.o      udata   0x000e00       data   0x000080
              SFR_BANKED0      udata   0x000e80       data   0x000006
              SFR_BANKED1      udata   0x000e8a       data   0x000001
              SFR_BANKED2      udata   0x000e97       data   0x000003
              SFR_BANKED3      udata   0x000ea0       data   0x000001
              SFR_BANKED4      udata   0x000ea2       data   0x000003
              SFR_BANKED5      udata   0x000ea6       data   0x000002
              SFR_BANKED6      udata   0x000eaa       data   0x000002
              SFR_BANKED7      udata   0x000eb2       data   0x000001
              SFR_BANKED8      udata   0x000eb4       data   0x000001
              SFR_BANKED9      udata   0x000eb6       data   0x000004
             SFR_BANKED10      udata   0x000ec0       data   0x000012
             SFR_BANKED11      udata   0x000ed4       data   0x000002
             SFR_BANKED12      udata   0x000ed8       data   0x000002
             SFR_BANKED13      udata   0x000ee2       data   0x000016
             SFR_BANKED14      udata   0x000efb       data   0x000001
             SFR_BANKED15      udata   0x000efd       data   0x000002
       SYN_QUEUE_RAM_SECT      udata   0x000f00       data   0x00003c
   .udata_NodeUDPServer.o      udata   0x000f3c       data   0x000023
              temp_tblptr      udata   0x000f5f       data   0x000001
            SFR_UNBANKED0      udata   0x000f60       data   0x0000a0



                              Program Memory Usage 
                               Start         End      
                           ---------   ---------      
                            0x000000    0x012c09      
                            0x01fff8    0x01fffa      
                            0x01fffd    0x01fffd      
            76814 out of 131072 program addresses used, program memory utilization is 58%



                              Symbols - Sorted by Name
                     Name    Address   Location    Storage File                     
                ---------  ---------  ---------  --------- ---------                
                  ARPInit   0x00f168    program     extern D:\fei\MPLABXProjects\ENIAC\Microchip\TCPIP Stack\ARP.c
            ARPIsResolved   0x00f432    program     extern D:\fei\MPLABXProjects\ENIAC\Microchip\TCPIP Stack\ARP.c
               ARPProcess   0x00f180    program     extern D:\fei\MPLABXProjects\ENIAC\Microchip\TCPIP Stack\ARP.c
                   ARPPut   0x00f00e    program     static D:\fei\MPLABXProjects\ENIAC\Microchip\TCPIP Stack\ARP.c
               ARPResolve   0x00f358    program     extern D:\fei\MPLABXProjects\ENIAC\Microchip\TCPIP Stack\ARP.c
               AnnounceIP   0x010bd6    program     extern D:\fei\MPLABXProjects\ENIAC\Microchip\TCPIP Stack\Announce.c
       BerkeleySocketInit   0x0086ba    program     extern D:\fei\MPLABXProjects\ENIAC\Microchip\TCPIP Stack\BerkeleyAPI.c
                  BusyADC   0x00000e    program     extern E:\c18v3.46\pic18-lt\cxx-framework\src\pmc_common\ADC\adcbusy.c
     CalcIPBufferChecksum   0x00cd06    program     extern D:\fei\MPLABXProjects\ENIAC\Microchip\TCPIP Stack\ETH97J60.c
           CalcIPChecksum   0x00c2f4    program     extern D:\fei\MPLABXProjects\ENIAC\Microchip\TCPIP Stack\Helpers.c
              CloseSocket   0x0040f8    program     static D:\fei\MPLABXProjects\ENIAC\Microchip\TCPIP Stack\TCP.c
               ConvertADC   0x012bca    program     extern E:\c18v3.46\pic18-lt\cxx-framework\src\pmc_common\ADC\adcconv.c
              DHCPDisable   0x00d3ee    program     extern D:\fei\MPLABXProjects\ENIAC\Microchip\TCPIP Stack\DHCP.c
               DHCPEnable   0x00d416    program     extern D:\fei\MPLABXProjects\ENIAC\Microchip\TCPIP Stack\DHCP.c
                 DHCPInit   0x00d3a0    program     extern D:\fei\MPLABXProjects\ENIAC\Microchip\TCPIP Stack\DHCP.c
              DHCPIsBound   0x00d450    program     extern D:\fei\MPLABXProjects\ENIAC\Microchip\TCPIP Stack\DHCP.c
            DHCPIsEnabled   0x00d432    program     extern D:\fei\MPLABXProjects\ENIAC\Microchip\TCPIP Stack\DHCP.c
     DHCPIsServerDetected   0x00d488    program     extern D:\fei\MPLABXProjects\ENIAC\Microchip\TCPIP Stack\DHCP.c
         DHCPStateChanged   0x00d468    program     extern D:\fei\MPLABXProjects\ENIAC\Microchip\TCPIP Stack\DHCP.c
                 DHCPTask   0x00d4a4    program     extern D:\fei\MPLABXProjects\ENIAC\Microchip\TCPIP Stack\DHCP.c
            DiscoveryTask   0x010cf8    program     extern D:\fei\MPLABXProjects\ENIAC\Microchip\TCPIP Stack\Announce.c
                EniacNode   0x005cfc    program     extern D:\fei\MPLABXProjects\ENIAC\Node.c
                 FLO0832S   0x00e972    program     extern E:\c18v3.46\pic18-lt\cxx-framework\src\traditional\math\cast08FP.asm
                 FLO0832U   0x00e96e    program     extern E:\c18v3.46\pic18-lt\cxx-framework\src\traditional\math\cast08FP.asm
                 FLO1632S   0x00e994    program     extern E:\c18v3.46\pic18-lt\cxx-framework\src\traditional\math\cast16FP.asm
                 FLO1632U   0x00e990    program     extern E:\c18v3.46\pic18-lt\cxx-framework\src\traditional\math\cast16FP.asm
                 FLO3232S   0x00e9be    program     extern E:\c18v3.46\pic18-lt\cxx-framework\src\traditional\math\cast32FP.asm
                 FLO3232U   0x00e9ba    program     extern E:\c18v3.46\pic18-lt\cxx-framework\src\traditional\math\cast32FP.asm
                    FPA32   0x00e9f2    program     extern E:\c18v3.46\pic18-lt\cxx-framework\src\traditional\math\addFP.asm
                    FPD32   0x00eb1e    program     extern E:\c18v3.46\pic18-lt\cxx-framework\src\traditional\math\divFP.asm
                    FPM32   0x00ebc4    program     extern E:\c18v3.46\pic18-lt\cxx-framework\src\traditional\math\mulFP.asm
                    FPS32   0x00e9f0    program     extern E:\c18v3.46\pic18-lt\cxx-framework\src\traditional\math\addFP.asm
                 FXD1616U   0x012b04    program     extern E:\c18v3.46\pic18-lt\cxx-framework\src\traditional\math\fxd1616u.c
                 FXD3232U   0x012a50    program     extern E:\c18v3.46\pic18-lt\cxx-framework\src\traditional\math\fxd3232u.c
                 FXM1616U   0x00ec9e    program     extern E:\c18v3.46\pic18-lt\cxx-framework\src\traditional\math\fxm1616u.asm
                 FXM2424U   0x00ecda    program     extern E:\c18v3.46\pic18-lt\cxx-framework\src\traditional\math\fxm2424u.asm
       FindMatchingSocket   0x00b45a    program     static D:\fei\MPLABXProjects\ENIAC\Microchip\TCPIP Stack\UDP.c
       FindMatchingSocket   0x0038aa    program     static D:\fei\MPLABXProjects\ENIAC\Microchip\TCPIP Stack\TCP.c
        FormatNetBIOSName   0x00c4f6    program     extern D:\fei\MPLABXProjects\ENIAC\Microchip\TCPIP Stack\Helpers.c
      GenerateRandomDWORD   0x00b792    program     extern D:\fei\MPLABXProjects\ENIAC\Microchip\TCPIP Stack\Helpers.c
      GetMaxSegSizeOption   0x004182    program     static D:\fei\MPLABXProjects\ENIAC\Microchip\TCPIP Stack\TCP.c
              GetTickCopy   0x0120b0    program     static D:\fei\MPLABXProjects\ENIAC\Microchip\TCPIP Stack\Tick.c
HandlePossibleTCPDisconnection   0x00a204    program     static D:\fei\MPLABXProjects\ENIAC\Microchip\TCPIP Stack\BerkeleyAPI.c
             HandleTCPSeg   0x0042f2    program     static D:\fei\MPLABXProjects\ENIAC\Microchip\TCPIP Stack\TCP.c
                  HighISR   0x012752    program     extern D:\fei\MPLABXProjects\ENIAC\Main.c
               HighVector   0x000008    program     extern D:\fei\MPLABXProjects\ENIAC\Main.c
               I2CRegRead   0x0109bc    program     extern D:\fei\MPLABXProjects\ENIAC\I2CHelpers.c
              I2CRegReadN   0x010a88    program     extern D:\fei\MPLABXProjects\ENIAC\I2CHelpers.c
              I2CRegWrite   0x01087a    program     extern D:\fei\MPLABXProjects\ENIAC\I2CHelpers.c
             I2CRegWriteN   0x01090a    program     extern D:\fei\MPLABXProjects\ENIAC\I2CHelpers.c
              ICMPProcess   0x0121e8    program     extern D:\fei\MPLABXProjects\ENIAC\Microchip\TCPIP Stack\ICMP.c
                  INT3216   0x00ed6c    program     extern E:\c18v3.46\pic18-lt\cxx-framework\src\traditional\math\castFP16.asm
                  INT3232   0x00efa0    program     extern E:\c18v3.46\pic18-lt\cxx-framework\src\traditional\math\castFP32.asm
              IPGetHeader   0x0100fa    program     extern D:\fei\MPLABXProjects\ENIAC\Microchip\TCPIP Stack\IP.c
              IPPutHeader   0x01026e    program     extern D:\fei\MPLABXProjects\ENIAC\Microchip\TCPIP Stack\IP.c
            IPSetRxBuffer   0x0103d2    program     extern D:\fei\MPLABXProjects\ENIAC\Microchip\TCPIP Stack\IP.c
            InitAppConfig   0x011ab4    program     extern D:\fei\MPLABXProjects\ENIAC\Setup.c
      InitSensorMPL3115A2   0x00fb7a    program     extern D:\fei\MPLABXProjects\ENIAC\MPL3115A2.c
              InitSensors   0x012822    program     extern D:\fei\MPLABXProjects\ENIAC\Sensors.c
          InitializeBoard   0x011a58    program     extern D:\fei\MPLABXProjects\ENIAC\Setup.c
                 LFSRRand   0x00b6fe    program     extern D:\fei\MPLABXProjects\ENIAC\Microchip\TCPIP Stack\Helpers.c
             LFSRSeedRand   0x00b646    program     extern D:\fei\MPLABXProjects\ENIAC\Microchip\TCPIP Stack\Helpers.c
                   LowISR   0x01268a    program     extern D:\fei\MPLABXProjects\ENIAC\Main.c
                LowVector   0x000018    program     extern D:\fei\MPLABXProjects\ENIAC\Main.c
        MACCalcRxChecksum   0x00cc44    program     extern D:\fei\MPLABXProjects\ENIAC\Microchip\TCPIP Stack\ETH97J60.c
             MACDiscardRx   0x00c766    program     extern D:\fei\MPLABXProjects\ENIAC\Microchip\TCPIP Stack\ETH97J60.c
                 MACFlush   0x00cb02    program     extern D:\fei\MPLABXProjects\ENIAC\Microchip\TCPIP Stack\ETH97J60.c
                   MACGet   0x00d188    program     extern D:\fei\MPLABXProjects\ENIAC\Microchip\TCPIP Stack\ETH97J60.c
              MACGetArray   0x00d18e    program     extern D:\fei\MPLABXProjects\ENIAC\Microchip\TCPIP Stack\ETH97J60.c
         MACGetFreeRxSize   0x00c7f6    program     extern D:\fei\MPLABXProjects\ENIAC\Microchip\TCPIP Stack\ETH97J60.c
             MACGetHeader   0x00c8ee    program     extern D:\fei\MPLABXProjects\ENIAC\Microchip\TCPIP Stack\ETH97J60.c
                  MACInit   0x00c600    program     extern D:\fei\MPLABXProjects\ENIAC\Microchip\TCPIP Stack\ETH97J60.c
              MACIsLinked   0x00c70c    program     extern D:\fei\MPLABXProjects\ENIAC\Microchip\TCPIP Stack\ETH97J60.c
         MACIsMemCopyDone   0x00d17a    program     extern D:\fei\MPLABXProjects\ENIAC\Microchip\TCPIP Stack\ETH97J60.c
             MACIsTxReady   0x00c72c    program     extern D:\fei\MPLABXProjects\ENIAC\Microchip\TCPIP Stack\ETH97J60.c
          MACMemCopyAsync   0x00cf0a    program     extern D:\fei\MPLABXProjects\ENIAC\Microchip\TCPIP Stack\ETH97J60.c
             MACPowerDown   0x00d380    program     extern D:\fei\MPLABXProjects\ENIAC\Microchip\TCPIP Stack\ETH97J60.c
               MACPowerUp   0x00d392    program     extern D:\fei\MPLABXProjects\ENIAC\Microchip\TCPIP Stack\ETH97J60.c
                   MACPut   0x00d22e    program     extern D:\fei\MPLABXProjects\ENIAC\Microchip\TCPIP Stack\ETH97J60.c
              MACPutArray   0x00d248    program     extern D:\fei\MPLABXProjects\ENIAC\Microchip\TCPIP Stack\ETH97J60.c
             MACPutHeader   0x00ca7a    program     extern D:\fei\MPLABXProjects\ENIAC\Microchip\TCPIP Stack\ETH97J60.c
           MACPutROMArray   0x00d28c    program     extern D:\fei\MPLABXProjects\ENIAC\Microchip\TCPIP Stack\ETH97J60.c
            MACSetReadPtr   0x00cbfe    program     extern D:\fei\MPLABXProjects\ENIAC\Microchip\TCPIP Stack\ETH97J60.c
        MACSetReadPtrInRx   0x00cb38    program     extern D:\fei\MPLABXProjects\ENIAC\Microchip\TCPIP Stack\ETH97J60.c
           MACSetWritePtr   0x00cbb8    program     extern D:\fei\MPLABXProjects\ENIAC\Microchip\TCPIP Stack\ETH97J60.c
           NodeTCPClient0   0x0104f4    program     extern D:\fei\MPLABXProjects\ENIAC\NodeTCPClient0.c
           NodeTCPClient1   0x010f24    program     extern D:\fei\MPLABXProjects\ENIAC\NodeTCPClient1.c
            NodeUDPClient   0x00e010    program     extern D:\fei\MPLABXProjects\ENIAC\NodeUDPClient.c
            NodeUDPServer   0x011270    program     extern D:\fei\MPLABXProjects\ENIAC\NodeUDPServer.c
                  OneByte   0x012450    program     static E:\c18v3.46\pic18-lt\cxx-framework\src\traditional\stdclib\itobcd.asm
                  OpenADC   0x01292c    program     extern E:\c18v3.46\pic18-lt\cxx-framework\src\pmc_common\ADC\adcopen.c
                 OpenI2C1   0x012ace    program     extern E:\c18v3.46\pic18-lt\cxx-framework\src\pmc_common\i2c\i2c1open.c
               OpenTimer2   0x012a98    program     extern E:\c18v3.46\pic18-lt\cxx-framework\src\pmc_common\Timers\t2open.c
                ProcLower   0x012404    program     static E:\c18v3.46\pic18-lt\cxx-framework\src\traditional\stdclib\itoa.asm
                ProcUpper   0x0123fa    program     static E:\c18v3.46\pic18-lt\cxx-framework\src\traditional\stdclib\itoa.asm
     ROMStringToIPAddress   0x00bc0e    program     extern D:\fei\MPLABXProjects\ENIAC\Microchip\TCPIP Stack\Helpers.c
             ReadHumidity   0x012876    program     extern D:\fei\MPLABXProjects\ENIAC\Sensors.c
      ReadHumidityHIH5031   0x01257e    program     extern D:\fei\MPLABXProjects\ENIAC\HIH-5031.c
                 ReadI2C1   0x012ba4    program     extern E:\c18v3.46\pic18-lt\cxx-framework\src\pmc_common\i2c\i2c1read.c
               ReadPHYReg   0x00d2e2    program     extern D:\fei\MPLABXProjects\ENIAC\Microchip\TCPIP Stack\ETH97J60.c
             ReadPressure   0x01286e    program     extern D:\fei\MPLABXProjects\ENIAC\Sensors.c
    ReadPressureMPL3115A2   0x00fe7c    program     extern D:\fei\MPLABXProjects\ENIAC\MPL3115A2.c
          ReadTemperature   0x012826    program     extern D:\fei\MPLABXProjects\ENIAC\Sensors.c
   ReadTemperatureMCP9808   0x0117de    program     extern D:\fei\MPLABXProjects\ENIAC\MCP9808.c
 ReadTemperatureMPL3115A2   0x00fb92    program     extern D:\fei\MPLABXProjects\ENIAC\MPL3115A2.c
                  SendTCP   0x0030d4    program     static D:\fei\MPLABXProjects\ENIAC\Microchip\TCPIP Stack\TCP.c
             SevenSegment   0x011e96    program     static D:\fei\MPLABXProjects\ENIAC\7segment.c
      SevenSegmentDisplay   0x011f12    program     extern D:\fei\MPLABXProjects\ENIAC\7segment.c
          SevenSegmentISR   0x01205a    program     extern D:\fei\MPLABXProjects\ENIAC\7segment.c
        StackApplications   0x0117da    program     extern D:\fei\MPLABXProjects\ENIAC\Microchip\TCPIP Stack\StackTsk.c
                StackInit   0x01153a    program     extern D:\fei\MPLABXProjects\ENIAC\Microchip\TCPIP Stack\StackTsk.c
                StackTask   0x011594    program     extern D:\fei\MPLABXProjects\ENIAC\Microchip\TCPIP Stack\StackTsk.c
        StringToIPAddress   0x00b9ba    program     extern D:\fei\MPLABXProjects\ENIAC\Microchip\TCPIP Stack\Helpers.c
            SwapARPPacket   0x00f4f8    program     extern D:\fei\MPLABXProjects\ENIAC\Microchip\TCPIP Stack\ARP.c
             SwapIPHeader   0x01040c    program     static D:\fei\MPLABXProjects\ENIAC\Microchip\TCPIP Stack\IP.c
            SwapTCPHeader   0x003ec8    program     static D:\fei\MPLABXProjects\ENIAC\Microchip\TCPIP Stack\TCP.c
                  SyncTCB   0x00017e    program     static D:\fei\MPLABXProjects\ENIAC\Microchip\TCPIP Stack\TCP.c
              SyncTCBStub   0x0000e0    program     static D:\fei\MPLABXProjects\ENIAC\Microchip\TCPIP Stack\TCP.c
                  TAEQB32   0x00edca    program     extern E:\c18v3.46\pic18-lt\cxx-framework\src\traditional\math\eqFP.asm
                  TALTB32   0x00edd8    program     extern E:\c18v3.46\pic18-lt\cxx-framework\src\traditional\math\ltFP.asm
        TCPAdjustFIFOSize   0x0056ee    program     extern D:\fei\MPLABXProjects\ENIAC\Microchip\TCPIP Stack\TCP.c
                 TCPClose   0x00086e    program     extern D:\fei\MPLABXProjects\ENIAC\Microchip\TCPIP Stack\TCP.c
               TCPDiscard   0x0011e4    program     extern D:\fei\MPLABXProjects\ENIAC\Microchip\TCPIP Stack\TCP.c
            TCPDisconnect   0x00078e    program     extern D:\fei\MPLABXProjects\ENIAC\Microchip\TCPIP Stack\TCP.c
           TCPFindArrayEx   0x001912    program     extern D:\fei\MPLABXProjects\ENIAC\Microchip\TCPIP Stack\TCP.c
                TCPFindEx   0x0025ce    program     extern D:\fei\MPLABXProjects\ENIAC\Microchip\TCPIP Stack\TCP.c
        TCPFindROMArrayEx   0x001f40    program     extern D:\fei\MPLABXProjects\ENIAC\Microchip\TCPIP Stack\TCP.c
                 TCPFlush   0x00091a    program     extern D:\fei\MPLABXProjects\ENIAC\Microchip\TCPIP Stack\TCP.c
                   TCPGet   0x0012be    program     extern D:\fei\MPLABXProjects\ENIAC\Microchip\TCPIP Stack\TCP.c
              TCPGetArray   0x0013ae    program     extern D:\fei\MPLABXProjects\ENIAC\Microchip\TCPIP Stack\TCP.c
         TCPGetRemoteInfo   0x0008aa    program     extern D:\fei\MPLABXProjects\ENIAC\Microchip\TCPIP Stack\TCP.c
         TCPGetRxFIFOFree   0x0015fa    program     extern D:\fei\MPLABXProjects\ENIAC\Microchip\TCPIP Stack\TCP.c
         TCPGetTxFIFOFull   0x00114a    program     extern D:\fei\MPLABXProjects\ENIAC\Microchip\TCPIP Stack\TCP.c
                  TCPInit   0x000236    program     extern D:\fei\MPLABXProjects\ENIAC\Microchip\TCPIP Stack\TCP.c
           TCPIsConnected   0x00074e    program     extern D:\fei\MPLABXProjects\ENIAC\Microchip\TCPIP Stack\TCP.c
            TCPIsGetReady   0x001230    program     extern D:\fei\MPLABXProjects\ENIAC\Microchip\TCPIP Stack\TCP.c
            TCPIsPutReady   0x00096a    program     extern D:\fei\MPLABXProjects\ENIAC\Microchip\TCPIP Stack\TCP.c
                  TCPOpen   0x000540    program     extern D:\fei\MPLABXProjects\ENIAC\Microchip\TCPIP Stack\TCP.c
                  TCPPeek   0x0018d0    program     extern D:\fei\MPLABXProjects\ENIAC\Microchip\TCPIP Stack\TCP.c
             TCPPeekArray   0x00168c    program     extern D:\fei\MPLABXProjects\ENIAC\Microchip\TCPIP Stack\TCP.c
               TCPProcess   0x002ec6    program     extern D:\fei\MPLABXProjects\ENIAC\Microchip\TCPIP Stack\TCP.c
                   TCPPut   0x000a16    program     extern D:\fei\MPLABXProjects\ENIAC\Microchip\TCPIP Stack\TCP.c
              TCPPutArray   0x000b6a    program     extern D:\fei\MPLABXProjects\ENIAC\Microchip\TCPIP Stack\TCP.c
           TCPPutROMArray   0x000dc8    program     extern D:\fei\MPLABXProjects\ENIAC\Microchip\TCPIP Stack\TCP.c
          TCPPutROMString   0x0010b6    program     extern D:\fei\MPLABXProjects\ENIAC\Microchip\TCPIP Stack\TCP.c
             TCPPutString   0x001030    program     extern D:\fei\MPLABXProjects\ENIAC\Microchip\TCPIP Stack\TCP.c
               TCPRAMCopy   0x005a2e    program     static D:\fei\MPLABXProjects\ENIAC\Microchip\TCPIP Stack\TCP.c
            TCPRAMCopyROM   0x005b78    program     static D:\fei\MPLABXProjects\ENIAC\Microchip\TCPIP Stack\TCP.c
     TCPSocketInitializer   0x012bbe    program     extern D:\fei\MPLABXProjects\ENIAC\Configs\TCPIP ETH97.h
                  TCPTick   0x002622    program     extern D:\fei\MPLABXProjects\ENIAC\Microchip\TCPIP Stack\TCP.c
              TCPWasReset   0x00070e    program     extern D:\fei\MPLABXProjects\ENIAC\Microchip\TCPIP Stack\TCP.c
TickConvertToMilliseconds   0x012190    program     extern D:\fei\MPLABXProjects\ENIAC\Microchip\TCPIP Stack\Tick.c
                  TickGet   0x0120de    program     extern D:\fei\MPLABXProjects\ENIAC\Microchip\TCPIP Stack\Tick.c
            TickGetDiv256   0x0120f4    program     extern D:\fei\MPLABXProjects\ENIAC\Microchip\TCPIP Stack\Tick.c
            TickGetDiv64K   0x012142    program     extern D:\fei\MPLABXProjects\ENIAC\Microchip\TCPIP Stack\Tick.c
                 TickInit   0x0120a0    program     extern D:\fei\MPLABXProjects\ENIAC\Microchip\TCPIP Stack\Tick.c
               TickUpdate   0x0121d4    program     extern D:\fei\MPLABXProjects\ENIAC\Microchip\TCPIP Stack\Tick.c
                 TstLower   0x0123ee    program     static E:\c18v3.46\pic18-lt\cxx-framework\src\traditional\stdclib\itoa.asm
                 TstUpper   0x0123e8    program     static E:\c18v3.46\pic18-lt\cxx-framework\src\traditional\stdclib\itoa.asm
                 UDPClose   0x00a8fc    program     extern D:\fei\MPLABXProjects\ENIAC\Microchip\TCPIP Stack\UDP.c
               UDPDiscard   0x00b210    program     extern D:\fei\MPLABXProjects\ENIAC\Microchip\TCPIP Stack\UDP.c
                 UDPFlush   0x00adfa    program     extern D:\fei\MPLABXProjects\ENIAC\Microchip\TCPIP Stack\UDP.c
                   UDPGet   0x00b0e6    program     extern D:\fei\MPLABXProjects\ENIAC\Microchip\TCPIP Stack\UDP.c
              UDPGetArray   0x00b132    program     extern D:\fei\MPLABXProjects\ENIAC\Microchip\TCPIP Stack\UDP.c
                  UDPInit   0x00a37e    program     extern D:\fei\MPLABXProjects\ENIAC\Microchip\TCPIP Stack\UDP.c
            UDPIsGetReady   0x00b096    program     extern D:\fei\MPLABXProjects\ENIAC\Microchip\TCPIP Stack\UDP.c
              UDPIsOpened   0x00a8c0    program     extern D:\fei\MPLABXProjects\ENIAC\Microchip\TCPIP Stack\UDP.c
            UDPIsPutReady   0x00aa32    program     extern D:\fei\MPLABXProjects\ENIAC\Microchip\TCPIP Stack\UDP.c
                UDPOpenEx   0x00a3aa    program     extern D:\fei\MPLABXProjects\ENIAC\Microchip\TCPIP Stack\UDP.c
               UDPProcess   0x00b22a    program     extern D:\fei\MPLABXProjects\ENIAC\Microchip\TCPIP Stack\UDP.c
                   UDPPut   0x00aab2    program     extern D:\fei\MPLABXProjects\ENIAC\Microchip\TCPIP Stack\UDP.c
              UDPPutArray   0x00ab0e    program     extern D:\fei\MPLABXProjects\ENIAC\Microchip\TCPIP Stack\UDP.c
           UDPPutROMArray   0x00abfa    program     extern D:\fei\MPLABXProjects\ENIAC\Microchip\TCPIP Stack\UDP.c
          UDPPutROMString   0x00ad6c    program     extern D:\fei\MPLABXProjects\ENIAC\Microchip\TCPIP Stack\UDP.c
             UDPPutString   0x00acec    program     extern D:\fei\MPLABXProjects\ENIAC\Microchip\TCPIP Stack\UDP.c
           UDPSetRxBuffer   0x00a9ee    program     extern D:\fei\MPLABXProjects\ENIAC\Microchip\TCPIP Stack\UDP.c
           UDPSetTxBuffer   0x00a980    program     extern D:\fei\MPLABXProjects\ENIAC\Microchip\TCPIP Stack\UDP.c
                  UDPTask   0x00a618    program     extern D:\fei\MPLABXProjects\ENIAC\Microchip\TCPIP Stack\UDP.c
                WriteI2C1   0x0128ac    program     extern E:\c18v3.46\pic18-lt\cxx-framework\src\pmc_common\i2c\i2c1writ.c
              WritePHYReg   0x00d33c    program     extern D:\fei\MPLABXProjects\ENIAC\Microchip\TCPIP Stack\ETH97J60.c
              _2jContinue   0x011d42    program     static E:\c18v3.46\pic18-lt\cxx-framework\src\traditional\stdclib\memset.asm
                   _2jEnd   0x011da6    program     static E:\c18v3.46\pic18-lt\cxx-framework\src\traditional\stdclib\slenpgm.asm
              _3jContinue   0x011e56    program     static E:\c18v3.46\pic18-lt\cxx-framework\src\traditional\stdclib\sncatp2r.asm
              _3jContinue   0x011d0e    program     static E:\c18v3.46\pic18-lt\cxx-framework\src\traditional\stdclib\mcpyp2r.asm
                   _3jEnd   0x011d4c    program     static E:\c18v3.46\pic18-lt\cxx-framework\src\traditional\stdclib\memset.asm
              _4jContinue   0x011df6    program     static E:\c18v3.46\pic18-lt\cxx-framework\src\traditional\stdclib\strncat.asm
              _4jContinue   0x011cba    program     static E:\c18v3.46\pic18-lt\cxx-framework\src\traditional\stdclib\memcpy.asm
                   _4jEnd   0x011e60    program     static E:\c18v3.46\pic18-lt\cxx-framework\src\traditional\stdclib\sncatp2r.asm
                   _4jEnd   0x011d18    program     static E:\c18v3.46\pic18-lt\cxx-framework\src\traditional\stdclib\mcpyp2r.asm
                   _5jEnd   0x011cc4    program     static E:\c18v3.46\pic18-lt\cxx-framework\src\traditional\stdclib\memcpy.asm
                   _5jEnd   0x011e00    program     static E:\c18v3.46\pic18-lt\cxx-framework\src\traditional\stdclib\strncat.asm
             _DHCPReceive   0x00d91c    program     static D:\fei\MPLABXProjects\ENIAC\Microchip\TCPIP Stack\DHCP.c
                _DHCPSend   0x00dd60    program     static D:\fei\MPLABXProjects\ENIAC\Microchip\TCPIP Stack\DHCP.c
                _UnpkMath   0x012462    program     extern E:\c18v3.46\pic18-lt\cxx-framework\src\traditional\stdclib\UnpkMath.c
              __FpCompare   0x00edea    program     extern E:\c18v3.46\pic18-lt\cxx-framework\src\traditional\math\compFP.asm
                 __FpExit   0x00eea0    program     extern E:\c18v3.46\pic18-lt\cxx-framework\src\traditional\math\packFP.asm
                 __FpPack   0x00eecc    program     extern E:\c18v3.46\pic18-lt\cxx-framework\src\traditional\math\packFP.asm
            __FpReturnNaN   0x00ee94    program     extern E:\c18v3.46\pic18-lt\cxx-framework\src\traditional\math\packFP.asm
         __FpReturnNegInf   0x00eea6    program     extern E:\c18v3.46\pic18-lt\cxx-framework\src\traditional\math\packFP.asm
        __FpReturnNegZero   0x00eebe    program     extern E:\c18v3.46\pic18-lt\cxx-framework\src\traditional\math\packFP.asm
         __FpReturnPosInf   0x00eeac    program     extern E:\c18v3.46\pic18-lt\cxx-framework\src\traditional\math\packFP.asm
        __FpReturnPosZero   0x00eec6    program     extern E:\c18v3.46\pic18-lt\cxx-framework\src\traditional\math\packFP.asm
        __FpReturnSignInf   0x00eea2    program     extern E:\c18v3.46\pic18-lt\cxx-framework\src\traditional\math\packFP.asm
       __FpReturnSignZero   0x00eeba    program     extern E:\c18v3.46\pic18-lt\cxx-framework\src\traditional\math\packFP.asm
              __FpReturnW   0x00ef24    program     extern E:\c18v3.46\pic18-lt\cxx-framework\src\traditional\math\packFP.asm
              __FpUnPackA   0x00ef44    program     extern E:\c18v3.46\pic18-lt\cxx-framework\src\traditional\math\UnpackFP.asm
              __FpUnPackB   0x00ef74    program     extern E:\c18v3.46\pic18-lt\cxx-framework\src\traditional\math\UnpackFP.asm
           ___do_lbl00002   0x0120d6    program     static                          
           ___do_lbl00003   0x0120da    program     static                          
           ___do_lbl00005   0x0120b0    program     static                          
          ___for_lbl00100   0x00c4b2    program     static                          
          ___for_lbl00101   0x00c4b8    program     static                          
          ___for_lbl00102   0x00c494    program     static                          
          ___for_lbl00103   0x00c4cc    program     static                          
          ___for_lbl00104   0x00c4d0    program     static                          
          ___for_lbl00105   0x00c4b8    program     static                          
           ___if_lbl00004   0x0120b4    program     static                          
           ___if_lbl00014   0x00b8a6    program     static                          
           ___if_lbl00015   0x00b8c4    program     static                          
           ___if_lbl00016   0x00b956    program     static                          
           ___if_lbl00017   0x00b95c    program     static                          
           ___if_lbl00020   0x00c904    program     static                          
           ___if_lbl00021   0x00c914    program     static                          
           ___if_lbl00027   0x00c9e2    program     static                          
           ___if_lbl00030   0x00ca5a    program     static                          
       ___return_lbl00000   0x012b2e    program     static                          
       ___return_lbl00000   0x012a96    program     static                          
       ___return_lbl00000   0x000004    program     static                          
       ___return_lbl00000   0x00c702    program     static                          
       ___return_lbl00001   0x0120dc    program     static                          
       ___return_lbl00001   0x012ba2    program     static                          
       ___return_lbl00002   0x012820    program     static                          
       ___return_lbl00004   0x00001c    program     static                          
       ___return_lbl00005   0x00000c    program     static                          
       ___return_lbl00009   0x00b9a6    program     static                          
       ___return_lbl00019   0x00ca62    program     static                          
       ___return_lbl00079   0x00d240    program     static                          
       ___return_lbl00080   0x00d284    program     static                          
       ___return_lbl00083   0x00d2da    program     static                          
       ___return_lbl00086   0x00d328    program     static                          
       ___return_lbl00089   0x00d376    program     static                          
       ___return_lbl00099   0x00c4e2    program     static                          
        ___while_lbl00001   0x00c612    program     static                          
        ___while_lbl00002   0x00c618    program     static                          
        ___while_lbl00010   0x00b800    program     static                          
        ___while_lbl00011   0x00b95e    program     static                          
        ___while_lbl00012   0x00b808    program     static                          
        ___while_lbl00013   0x00b80c    program     static                          
        ___while_lbl00081   0x00d250    program     static                          
        ___while_lbl00082   0x00d284    program     static                          
        ___while_lbl00084   0x00d294    program     static                          
        ___while_lbl00085   0x00d2da    program     static                          
        ___while_lbl00087   0x00d2fe    program     static                          
        ___while_lbl00088   0x00d304    program     static                          
        ___while_lbl00090   0x00d370    program     static                          
        ___while_lbl00091   0x00d376    program     static                          
               __config_0   0x01fff8    program     static D:\fei\MPLABXProjects\ENIAC\Setup.c
               __config_1   0x01fff9    program     static D:\fei\MPLABXProjects\ENIAC\Setup.c
               __config_2   0x01fffa    program     static D:\fei\MPLABXProjects\ENIAC\Setup.c
               __config_3   0x01fffd    program     static D:\fei\MPLABXProjects\ENIAC\Setup.c
                   __init   0x000006    program     extern E:\c18v3.46\pic18-lt\cxx-framework\src\traditional\stdclib\__init.c
                   __pa_0   0x012570    program     static E:\c18v3.46\pic18-lt\cxx-framework\src\traditional\stdclib\UnpkMath.c
                   __pa_0   0x00f9be    program     static E:\c18v3.46\pic18-lt\cxx-framework\src\traditional\stdclib\sincos.c
                   __pa_1   0x00f9d6    program     static E:\c18v3.46\pic18-lt\cxx-framework\src\traditional\stdclib\sincos.c
                  __pa_10   0x00fa92    program     static E:\c18v3.46\pic18-lt\cxx-framework\src\traditional\stdclib\sincos.c
                  __pa_11   0x00faa4    program     static E:\c18v3.46\pic18-lt\cxx-framework\src\traditional\stdclib\sincos.c
                  __pa_12   0x00fab2    program     static E:\c18v3.46\pic18-lt\cxx-framework\src\traditional\stdclib\sincos.c
                  __pa_13   0x00fab8    program     static E:\c18v3.46\pic18-lt\cxx-framework\src\traditional\stdclib\sincos.c
                  __pa_14   0x00fad2    program     static E:\c18v3.46\pic18-lt\cxx-framework\src\traditional\stdclib\sincos.c
                  __pa_15   0x00fae4    program     static E:\c18v3.46\pic18-lt\cxx-framework\src\traditional\stdclib\sincos.c
                  __pa_16   0x00fb08    program     static E:\c18v3.46\pic18-lt\cxx-framework\src\traditional\stdclib\sincos.c
                  __pa_17   0x00fb1a    program     static E:\c18v3.46\pic18-lt\cxx-framework\src\traditional\stdclib\sincos.c
                  __pa_18   0x00fb28    program     static E:\c18v3.46\pic18-lt\cxx-framework\src\traditional\stdclib\sincos.c
                  __pa_19   0x00fb3a    program     static E:\c18v3.46\pic18-lt\cxx-framework\src\traditional\stdclib\sincos.c
                   __pa_2   0x00f9f2    program     static E:\c18v3.46\pic18-lt\cxx-framework\src\traditional\stdclib\sincos.c
                  __pa_20   0x00fb4a    program     static E:\c18v3.46\pic18-lt\cxx-framework\src\traditional\stdclib\sincos.c
                  __pa_21   0x00fb56    program     static E:\c18v3.46\pic18-lt\cxx-framework\src\traditional\stdclib\sincos.c
                  __pa_22   0x00fb60    program     static E:\c18v3.46\pic18-lt\cxx-framework\src\traditional\stdclib\sincos.c
                  __pa_23   0x00fb68    program     static E:\c18v3.46\pic18-lt\cxx-framework\src\traditional\stdclib\sincos.c
                  __pa_24   0x00fb6e    program     static E:\c18v3.46\pic18-lt\cxx-framework\src\traditional\stdclib\sincos.c
                   __pa_3   0x00fa0c    program     static E:\c18v3.46\pic18-lt\cxx-framework\src\traditional\stdclib\sincos.c
                   __pa_4   0x00fa16    program     static E:\c18v3.46\pic18-lt\cxx-framework\src\traditional\stdclib\sincos.c
                   __pa_5   0x00fa2c    program     static E:\c18v3.46\pic18-lt\cxx-framework\src\traditional\stdclib\sincos.c
                   __pa_6   0x00fa42    program     static E:\c18v3.46\pic18-lt\cxx-framework\src\traditional\stdclib\sincos.c
                   __pa_7   0x00fa54    program     static E:\c18v3.46\pic18-lt\cxx-framework\src\traditional\stdclib\sincos.c
                   __pa_8   0x00fa6e    program     static E:\c18v3.46\pic18-lt\cxx-framework\src\traditional\stdclib\sincos.c
                   __pa_9   0x00fa88    program     static E:\c18v3.46\pic18-lt\cxx-framework\src\traditional\stdclib\sincos.c
               __string_0   0x012b5c    program     static D:\fei\MPLABXProjects\ENIAC\Microchip\TCPIP Stack\Announce.c
               __string_0   0x012b7a    program     static D:\fei\MPLABXProjects\ENIAC\Setup.c
               __string_1   0x012b78    program     static D:\fei\MPLABXProjects\ENIAC\Setup.c
               __tmplbl_0   0x00b86a    program     static                          
              __tmplbl_10   0x00c97e    program     static                          
              __tmplbl_11   0x00c97c    program     static                          
              __tmplbl_12   0x00ca48    program     static                          
              __tmplbl_13   0x00ca3a    program     static                          
             __tmplbl_135   0x0056da    program     static                          
             __tmplbl_137   0x0056da    program     static                          
             __tmplbl_139   0x0056da    program     static                          
              __tmplbl_14   0x00ca40    program     static                          
             __tmplbl_141   0x0056da    program     static                          
             __tmplbl_143   0x0056da    program     static                          
             __tmplbl_146   0x0056da    program     static                          
             __tmplbl_154   0x0056da    program     static                          
             __tmplbl_155   0x0056da    program     static                          
             __tmplbl_157   0x0056da    program     static                          
             __tmplbl_159   0x0056da    program     static                          
             __tmplbl_160   0x0056da    program     static                          
             __tmplbl_170   0x0056da    program     static                          
             __tmplbl_171   0x0056da    program     static                          
             __tmplbl_172   0x0056da    program     static                          
             __tmplbl_174   0x0056da    program     static                          
             __tmplbl_175   0x0056da    program     static                          
             __tmplbl_176   0x0056da    program     static                          
             __tmplbl_177   0x0056da    program     static                          
              __tmplbl_33   0x00654e    program     static                          
              __tmplbl_34   0x006544    program     static                          
              __tmplbl_39   0x006552    program     static                          
               __tmplbl_5   0x00c9e0    program     static                          
               __tmplbl_6   0x00c9cc    program     static                          
               __tmplbl_7   0x00c9b6    program     static                          
               __tmplbl_8   0x00c9a2    program     static                          
               __tmplbl_9   0x00c98c    program     static                          
            __zero_memory   0x012b30    program     extern E:\c18v3.46\pic18-lt\cxx-framework\src\traditional\proc\p18f67j60.asm
                _do_cinit   0x012784    program     extern E:\c18v3.46\pic18-lt\cxx-framework\src\traditional\startup\c018iz.c
                   _entry   0x000000    program     extern E:\c18v3.46\pic18-lt\cxx-framework\src\traditional\startup\c018iz.c
                   _false   0x012a92    program     static                          
                  _sincos   0x00f5d0    program     extern E:\c18v3.46\pic18-lt\cxx-framework\src\traditional\stdclib\sincos.c
                 _startup   0x012b84    program     extern E:\c18v3.46\pic18-lt\cxx-framework\src\traditional\startup\c018iz.c
                   accept   0x008d82    program     extern D:\fei\MPLABXProjects\ENIAC\Microchip\TCPIP Stack\BerkeleyAPI.c
                     bind   0x0088da    program     extern D:\fei\MPLABXProjects\ENIAC\Microchip\TCPIP Stack\BerkeleyAPI.c
             btohexa_high   0x00c07a    program     extern D:\fei\MPLABXProjects\ENIAC\Microchip\TCPIP Stack\Helpers.c
              btohexa_low   0x00c0b0    program     extern D:\fei\MPLABXProjects\ENIAC\Microchip\TCPIP Stack\Helpers.c
           calculateDXIDT   0x007552    program     static D:\fei\MPLABXProjects\ENIAC\Node.c
              calculateXI   0x006bac    program     static D:\fei\MPLABXProjects\ENIAC\Node.c
    checkIfFluidIsLeaving   0x006e9a    program     static D:\fei\MPLABXProjects\ENIAC\Node.c
       closeNodeUDPClient   0x00e946    program     extern D:\fei\MPLABXProjects\ENIAC\NodeUDPClient.c
       closeNodeUDPServer   0x011532    program     extern D:\fei\MPLABXProjects\ENIAC\NodeUDPServer.c
              closesocket   0x009ee8    program     extern D:\fei\MPLABXProjects\ENIAC\Microchip\TCPIP Stack\BerkeleyAPI.c
                compare_l   0x012b52    program     static E:\c18v3.46\pic18-lt\cxx-framework\src\traditional\proc\p18f67j60.asm
                  connect   0x0090fa    program     extern D:\fei\MPLABXProjects\ENIAC\Microchip\TCPIP Stack\BerkeleyAPI.c
                copy_loop   0x0127f6    program     static                          
            copy_one_byte   0x0127fc    program     static                          
                     done   0x012820    program     static                          
             done_copying   0x01280a    program     static                          
                  endloop   0x012b2a    program     static                          
         extrapolateDXIDT   0x007bce    program     static D:\fei\MPLABXProjects\ENIAC\Node.c
            extrapolateXI   0x007142    program     static D:\fei\MPLABXProjects\ENIAC\Node.c
                     fabs   0x01299a    program     extern E:\c18v3.46\pic18-lt\cxx-framework\src\traditional\stdclib\fabs.c
    getNeighborsValuesUDP   0x0084ea    program     static D:\fei\MPLABXProjects\ENIAC\Node.c
                 getValue   0x007fe2    program     extern D:\fei\MPLABXProjects\ENIAC\Node.c
              gethostname   0x009dde    program     extern D:\fei\MPLABXProjects\ENIAC\Microchip\TCPIP Stack\BerkeleyAPI.c
                  hexatob   0x00bfbe    program     extern D:\fei\MPLABXProjects\ENIAC\Microchip\TCPIP Stack\Helpers.c
                 initNode   0x0065ac    program     static D:\fei\MPLABXProjects\ENIAC\Node.c
                   itoBCD   0x01240e    program     extern E:\c18v3.46\pic18-lt\cxx-framework\src\traditional\stdclib\itobcd.asm
                     itoa   0x01232e    program     extern E:\c18v3.46\pic18-lt\cxx-framework\src\traditional\stdclib\itoa.asm
                 jANotInf   0x00ebe2    program     static E:\c18v3.46\pic18-lt\cxx-framework\src\traditional\math\mulFP.asm
                 jANotInf   0x00eb3c    program     static E:\c18v3.46\pic18-lt\cxx-framework\src\traditional\math\divFP.asm
                 jANotInf   0x00ea1a    program     static E:\c18v3.46\pic18-lt\cxx-framework\src\traditional\math\addFP.asm
                 jANotNeg   0x00eaae    program     static E:\c18v3.46\pic18-lt\cxx-framework\src\traditional\math\addFP.asm
                jANotZero   0x00eb50    program     static E:\c18v3.46\pic18-lt\cxx-framework\src\traditional\math\divFP.asm
              jAandWsetup   0x00ea7e    program     static E:\c18v3.46\pic18-lt\cxx-framework\src\traditional\math\addFP.asm
                  jAisNeg   0x00ee66    program     static E:\c18v3.46\pic18-lt\cxx-framework\src\traditional\math\compFP.asm
                 jAltBexp   0x00ea6c    program     static E:\c18v3.46\pic18-lt\cxx-framework\src\traditional\math\addFP.asm
                jBANotInf   0x00ea10    program     static E:\c18v3.46\pic18-lt\cxx-framework\src\traditional\math\addFP.asm
                 jBNotInf   0x00ea28    program     static E:\c18v3.46\pic18-lt\cxx-framework\src\traditional\math\addFP.asm
              jBothFinite   0x00ebf0    program     static E:\c18v3.46\pic18-lt\cxx-framework\src\traditional\math\mulFP.asm
             jBothNotZero   0x00ee08    program     static E:\c18v3.46\pic18-lt\cxx-framework\src\traditional\math\compFP.asm
             jBothNotZero   0x00ebfc    program     static E:\c18v3.46\pic18-lt\cxx-framework\src\traditional\math\mulFP.asm
            jDifOrPosSign   0x00ea3c    program     static E:\c18v3.46\pic18-lt\cxx-framework\src\traditional\math\addFP.asm
                     jDo1   0x0123b4    program     static E:\c18v3.46\pic18-lt\cxx-framework\src\traditional\stdclib\itoa.asm
                     jDo2   0x0123b0    program     static E:\c18v3.46\pic18-lt\cxx-framework\src\traditional\stdclib\itoa.asm
                     jDo3   0x0123ac    program     static E:\c18v3.46\pic18-lt\cxx-framework\src\traditional\stdclib\itoa.asm
                     jDo4   0x0123a8    program     static E:\c18v3.46\pic18-lt\cxx-framework\src\traditional\stdclib\itoa.asm
                     jDo5   0x0123a4    program     static E:\c18v3.46\pic18-lt\cxx-framework\src\traditional\stdclib\itoa.asm
                      jEQ   0x00ee24    program     static E:\c18v3.46\pic18-lt\cxx-framework\src\traditional\math\compFP.asm
                     jEnd   0x01244c    program     static E:\c18v3.46\pic18-lt\cxx-framework\src\traditional\stdclib\itobcd.asm
                     jEnd   0x011cca    program     static E:\c18v3.46\pic18-lt\cxx-framework\src\traditional\stdclib\memcpy.asm
                     jEnd   0x011d20    program     static E:\c18v3.46\pic18-lt\cxx-framework\src\traditional\stdclib\mcpyp2r.asm
                     jEnd   0x011d54    program     static E:\c18v3.46\pic18-lt\cxx-framework\src\traditional\stdclib\memset.asm
                     jEnd   0x011d70    program     static E:\c18v3.46\pic18-lt\cxx-framework\src\traditional\stdclib\strlen.asm
                     jEnd   0x011da8    program     static E:\c18v3.46\pic18-lt\cxx-framework\src\traditional\stdclib\slenpgm.asm
                     jEnd   0x011e0c    program     static E:\c18v3.46\pic18-lt\cxx-framework\src\traditional\stdclib\strncat.asm
                     jEnd   0x011e6a    program     static E:\c18v3.46\pic18-lt\cxx-framework\src\traditional\stdclib\sncatp2r.asm
                     jEnd   0x011e94    program     static E:\c18v3.46\pic18-lt\cxx-framework\src\traditional\stdclib\strupr.asm
                    jExch   0x00ee30    program     static E:\c18v3.46\pic18-lt\cxx-framework\src\traditional\math\compFP.asm
                    jExit   0x00f00c    program     static E:\c18v3.46\pic18-lt\cxx-framework\src\traditional\math\castFP32.asm
                    jExit   0x00edc8    program     static E:\c18v3.46\pic18-lt\cxx-framework\src\traditional\math\castFP16.asm
                   jExpEQ   0x00ee76    program     static E:\c18v3.46\pic18-lt\cxx-framework\src\traditional\math\compFP.asm
                   jFinal   0x00ee5a    program     static E:\c18v3.46\pic18-lt\cxx-framework\src\traditional\math\compFP.asm
               jFinalSign   0x00eb16    program     static E:\c18v3.46\pic18-lt\cxx-framework\src\traditional\math\addFP.asm
                jHaveZero   0x00ebf8    program     static E:\c18v3.46\pic18-lt\cxx-framework\src\traditional\math\mulFP.asm
                jI2F08Beg   0x00e97c    program     static E:\c18v3.46\pic18-lt\cxx-framework\src\traditional\math\cast08FP.asm
                jI2F16Beg   0x00e9a4    program     static E:\c18v3.46\pic18-lt\cxx-framework\src\traditional\math\cast16FP.asm
                jI2F32Beg   0x00e9d6    program     static E:\c18v3.46\pic18-lt\cxx-framework\src\traditional\math\cast32FP.asm
                    jLoop   0x011d02    program     static E:\c18v3.46\pic18-lt\cxx-framework\src\traditional\stdclib\mcpyp2r.asm
                    jLoop   0x011e80    program     static E:\c18v3.46\pic18-lt\cxx-framework\src\traditional\stdclib\strupr.asm
                    jLoop   0x011d90    program     static E:\c18v3.46\pic18-lt\cxx-framework\src\traditional\stdclib\slenpgm.asm
                    jLoop   0x011d66    program     static E:\c18v3.46\pic18-lt\cxx-framework\src\traditional\stdclib\strlen.asm
                    jLoop   0x011dea    program     static E:\c18v3.46\pic18-lt\cxx-framework\src\traditional\stdclib\strncat.asm
                    jLoop   0x011d36    program     static E:\c18v3.46\pic18-lt\cxx-framework\src\traditional\stdclib\memset.asm
                    jLoop   0x011cae    program     static E:\c18v3.46\pic18-lt\cxx-framework\src\traditional\stdclib\memcpy.asm
                    jLoop   0x00eb78    program     static E:\c18v3.46\pic18-lt\cxx-framework\src\traditional\math\divFP.asm
                    jLoop   0x011e4a    program     static E:\c18v3.46\pic18-lt\cxx-framework\src\traditional\stdclib\sncatp2r.asm
                    jLoop   0x00eda8    program     static E:\c18v3.46\pic18-lt\cxx-framework\src\traditional\math\castFP16.asm
                    jLoop   0x012426    program     static E:\c18v3.46\pic18-lt\cxx-framework\src\traditional\stdclib\itobcd.asm
                    jLoop   0x00efe0    program     static E:\c18v3.46\pic18-lt\cxx-framework\src\traditional\math\castFP32.asm
                jLoopExit   0x00edb8    program     static E:\c18v3.46\pic18-lt\cxx-framework\src\traditional\math\castFP16.asm
                jLoopExit   0x00eff4    program     static E:\c18v3.46\pic18-lt\cxx-framework\src\traditional\math\castFP32.asm
                     jMax   0x00ed7c    program     static E:\c18v3.46\pic18-lt\cxx-framework\src\traditional\math\castFP16.asm
                     jMax   0x00efb0    program     static E:\c18v3.46\pic18-lt\cxx-framework\src\traditional\math\castFP32.asm
                  jMaxNeg   0x00ed8a    program     static E:\c18v3.46\pic18-lt\cxx-framework\src\traditional\math\castFP16.asm
                  jMaxNeg   0x00efc2    program     static E:\c18v3.46\pic18-lt\cxx-framework\src\traditional\math\castFP32.asm
                  jMaxPos   0x00ed80    program     static E:\c18v3.46\pic18-lt\cxx-framework\src\traditional\math\castFP16.asm
                  jMaxPos   0x00efb4    program     static E:\c18v3.46\pic18-lt\cxx-framework\src\traditional\math\castFP32.asm
                      jNE   0x00ee28    program     static E:\c18v3.46\pic18-lt\cxx-framework\src\traditional\math\compFP.asm
                    jNext   0x00eb9e    program     static E:\c18v3.46\pic18-lt\cxx-framework\src\traditional\math\divFP.asm
                jNoAdjust   0x00eb9c    program     static E:\c18v3.46\pic18-lt\cxx-framework\src\traditional\math\divFP.asm
                  jNoExch   0x00ee50    program     static E:\c18v3.46\pic18-lt\cxx-framework\src\traditional\math\compFP.asm
             jNotBothZero   0x00ea40    program     static E:\c18v3.46\pic18-lt\cxx-framework\src\traditional\math\addFP.asm
                  jNotInf   0x00ed98    program     static E:\c18v3.46\pic18-lt\cxx-framework\src\traditional\math\castFP16.asm
                  jNotInf   0x00efce    program     static E:\c18v3.46\pic18-lt\cxx-framework\src\traditional\math\castFP32.asm
                jNullLoop   0x011de4    program     static E:\c18v3.46\pic18-lt\cxx-framework\src\traditional\stdclib\strncat.asm
                jNullLoop   0x011e44    program     static E:\c18v3.46\pic18-lt\cxx-framework\src\traditional\stdclib\sncatp2r.asm
                  jPkLoop   0x00eeda    program     static E:\c18v3.46\pic18-lt\cxx-framework\src\traditional\math\packFP.asm
             jPkRoundDone   0x00ef24    program     static E:\c18v3.46\pic18-lt\cxx-framework\src\traditional\math\packFP.asm
               jPkRoundIt   0x00ef0c    program     static E:\c18v3.46\pic18-lt\cxx-framework\src\traditional\math\packFP.asm
             jPkShiftDone   0x00eef6    program     static E:\c18v3.46\pic18-lt\cxx-framework\src\traditional\math\packFP.asm
           jReturnPosInf0   0x00eeb0    program     static E:\c18v3.46\pic18-lt\cxx-framework\src\traditional\math\packFP.asm
                  jRotate   0x00ee82    program     static E:\c18v3.46\pic18-lt\cxx-framework\src\traditional\math\compFP.asm
                   jShift   0x00ee6c    program     static E:\c18v3.46\pic18-lt\cxx-framework\src\traditional\math\compFP.asm
               jShiftDone   0x00ead6    program     static E:\c18v3.46\pic18-lt\cxx-framework\src\traditional\math\addFP.asm
               jShiftLoop   0x00eac8    program     static E:\c18v3.46\pic18-lt\cxx-framework\src\traditional\math\addFP.asm
                jSignDone   0x00eb06    program     static E:\c18v3.46\pic18-lt\cxx-framework\src\traditional\math\addFP.asm
              jSignedZero   0x00eb46    program     static E:\c18v3.46\pic18-lt\cxx-framework\src\traditional\math\divFP.asm
                 jSignsEQ   0x00ee0c    program     static E:\c18v3.46\pic18-lt\cxx-framework\src\traditional\math\compFP.asm
                    jSkip   0x011e90    program     static E:\c18v3.46\pic18-lt\cxx-framework\src\traditional\stdclib\strupr.asm
                    jTerm   0x011e0a    program     static E:\c18v3.46\pic18-lt\cxx-framework\src\traditional\stdclib\strncat.asm
                jTstLowZ1   0x0123f8    program     static E:\c18v3.46\pic18-lt\cxx-framework\src\traditional\stdclib\itoa.asm
                jTstSign1   0x01235a    program     static E:\c18v3.46\pic18-lt\cxx-framework\src\traditional\stdclib\itoa.asm
                  jUnpkA1   0x00ef4e    program     static E:\c18v3.46\pic18-lt\cxx-framework\src\traditional\math\UnpackFP.asm
                  jUnpkA2   0x00ef66    program     static E:\c18v3.46\pic18-lt\cxx-framework\src\traditional\math\UnpackFP.asm
                 jUnpkANZ   0x00ef5c    program     static E:\c18v3.46\pic18-lt\cxx-framework\src\traditional\math\UnpackFP.asm
                  jUnpkB1   0x00ef7e    program     static E:\c18v3.46\pic18-lt\cxx-framework\src\traditional\math\UnpackFP.asm
                  jUnpkB2   0x00ef96    program     static E:\c18v3.46\pic18-lt\cxx-framework\src\traditional\math\UnpackFP.asm
                 jUnpkBNZ   0x00ef8c    program     static E:\c18v3.46\pic18-lt\cxx-framework\src\traditional\math\UnpackFP.asm
                 jUnpkNaN   0x00ef70    program     static E:\c18v3.46\pic18-lt\cxx-framework\src\traditional\math\UnpackFP.asm
                 jWNotNeg   0x00eac2    program     static E:\c18v3.46\pic18-lt\cxx-framework\src\traditional\math\addFP.asm
                   jWr123   0x00efba    program     static E:\c18v3.46\pic18-lt\cxx-framework\src\traditional\math\castFP32.asm
                  jWrZ123   0x00efca    program     static E:\c18v3.46\pic18-lt\cxx-framework\src\traditional\math\castFP32.asm
                    jZero   0x00ed92    program     static E:\c18v3.46\pic18-lt\cxx-framework\src\traditional\math\castFP16.asm
                    jZero   0x00efc8    program     static E:\c18v3.46\pic18-lt\cxx-framework\src\traditional\math\castFP32.asm
               jZero1and2   0x00eeb4    program     static E:\c18v3.46\pic18-lt\cxx-framework\src\traditional\math\packFP.asm
          leftRotateDWORD   0x00c46a    program     extern D:\fei\MPLABXProjects\ENIAC\Microchip\TCPIP Stack\Helpers.c
                   listen   0x008a7e    program     extern D:\fei\MPLABXProjects\ENIAC\Microchip\TCPIP Stack\BerkeleyAPI.c
                     loop   0x012b98    program     static                          
                     loop   0x012b0e    program     static                          
                     loop   0x012a5e    program     static                          
                   loop_h   0x012b4a    program     static E:\c18v3.46\pic18-lt\cxx-framework\src\traditional\proc\p18f67j60.asm
                   loop_l   0x012b54    program     static E:\c18v3.46\pic18-lt\cxx-framework\src\traditional\proc\p18f67j60.asm
                     main   0x012764    program     extern D:\fei\MPLABXProjects\ENIAC\Main.c
                   memcpy   0x011c86    program     extern E:\c18v3.46\pic18-lt\cxx-framework\src\traditional\stdclib\memcpy.asm
            memcpypgm2ram   0x011cdc    program     extern E:\c18v3.46\pic18-lt\cxx-framework\src\traditional\stdclib\mcpyp2r.asm
                   memset   0x011d22    program     extern E:\c18v3.46\pic18-lt\cxx-framework\src\traditional\stdclib\memset.asm
neighborsValuesUDPFinished   0x00860c    program     static D:\fei\MPLABXProjects\ENIAC\Node.c
   nodeTCPClient0Finished   0x01086a    program     extern D:\fei\MPLABXProjects\ENIAC\NodeTCPClient0.c
   nodeTCPClient1Finished   0x011260    program     extern D:\fei\MPLABXProjects\ENIAC\NodeTCPClient1.c
    nodeUDPClientFinished   0x00e8fc    program     extern D:\fei\MPLABXProjects\ENIAC\NodeUDPClient.c
   nodeUDPServerListening   0x011512    program     extern D:\fei\MPLABXProjects\ENIAC\NodeUDPServer.c
                     recv   0x00998e    program     extern D:\fei\MPLABXProjects\ENIAC\Microchip\TCPIP Stack\BerkeleyAPI.c
                 recvfrom   0x009ae4    program     extern D:\fei\MPLABXProjects\ENIAC\Microchip\TCPIP Stack\BerkeleyAPI.c
                     send   0x0094a6    program     extern D:\fei\MPLABXProjects\ENIAC\Microchip\TCPIP Stack\BerkeleyAPI.c
                   sendto   0x0094f6    program     extern D:\fei\MPLABXProjects\ENIAC\Microchip\TCPIP Stack\BerkeleyAPI.c
                 setValue   0x008322    program     static D:\fei\MPLABXProjects\ENIAC\Node.c
                      sin   0x012a00    program     extern E:\c18v3.46\pic18-lt\cxx-framework\src\traditional\stdclib\sin.c
                   socket   0x008754    program     extern D:\fei\MPLABXProjects\ENIAC\Microchip\TCPIP Stack\BerkeleyAPI.c
     solvePoissonEquation   0x0078e4    program     static D:\fei\MPLABXProjects\ENIAC\Node.c
      startNodeTCPClient0   0x010800    program     extern D:\fei\MPLABXProjects\ENIAC\NodeTCPClient0.c
      startNodeTCPClient1   0x011232    program     extern D:\fei\MPLABXProjects\ENIAC\NodeTCPClient1.c
       startNodeUDPClient   0x00e7e4    program     extern D:\fei\MPLABXProjects\ENIAC\NodeUDPClient.c
       startNodeUDPServer   0x0114f2    program     extern D:\fei\MPLABXProjects\ENIAC\NodeUDPServer.c
           startUDPServer   0x00656e    program     static D:\fei\MPLABXProjects\ENIAC\Node.c
           stricmppgm2ram   0x00c0e4    program     extern D:\fei\MPLABXProjects\ENIAC\Microchip\TCPIP Stack\Helpers.c
                   strlen   0x011d56    program     extern E:\c18v3.46\pic18-lt\cxx-framework\src\traditional\stdclib\strlen.asm
                strlenpgm   0x011d72    program     extern E:\c18v3.46\pic18-lt\cxx-framework\src\traditional\stdclib\slenpgm.asm
                  strncat   0x011dbc    program     extern E:\c18v3.46\pic18-lt\cxx-framework\src\traditional\stdclib\strncat.asm
           strncatpgm2ram   0x011e1e    program     extern E:\c18v3.46\pic18-lt\cxx-framework\src\traditional\stdclib\sncatp2r.asm
                  strnchr   0x00c588    program     extern D:\fei\MPLABXProjects\ENIAC\Microchip\TCPIP Stack\Helpers.c
                   strupr   0x011e6c    program     extern E:\c18v3.46\pic18-lt\cxx-framework\src\traditional\stdclib\strupr.asm
                    swapl   0x00c24e    program     extern D:\fei\MPLABXProjects\ENIAC\Microchip\TCPIP Stack\Helpers.c
                    swaps   0x00c1fa    program     extern D:\fei\MPLABXProjects\ENIAC\Microchip\TCPIP Stack\Helpers.c
                     test   0x01279e    program     static                          
                    uitoa   0x00be72    program     extern D:\fei\MPLABXProjects\ENIAC\Microchip\TCPIP Stack\Helpers.c
               zero_block   0x012b4a    program     static E:\c18v3.46\pic18-lt\cxx-framework\src\traditional\proc\p18f67j60.asm
                   ADCON0   0x000fc2       data     extern E:\c18v3.46\pic18-lt\cxx-framework\src\traditional\proc\p18f67j60.asm
               ADCON0bits   0x000fc2       data     extern E:\c18v3.46\pic18-lt\cxx-framework\src\traditional\proc\p18f67j60.asm
                   ADCON1   0x000fc1       data     extern E:\c18v3.46\pic18-lt\cxx-framework\src\traditional\proc\p18f67j60.asm
               ADCON1bits   0x000fc1       data     extern E:\c18v3.46\pic18-lt\cxx-framework\src\traditional\proc\p18f67j60.asm
                   ADCON2   0x000fc0       data     extern E:\c18v3.46\pic18-lt\cxx-framework\src\traditional\proc\p18f67j60.asm
               ADCON2bits   0x000fc0       data     extern E:\c18v3.46\pic18-lt\cxx-framework\src\traditional\proc\p18f67j60.asm
                    ADRES   0x000fc3       data     extern E:\c18v3.46\pic18-lt\cxx-framework\src\traditional\proc\p18f67j60.asm
                   ADRESH   0x000fc4       data     extern E:\c18v3.46\pic18-lt\cxx-framework\src\traditional\proc\p18f67j60.asm
                   ADRESL   0x000fc3       data     extern E:\c18v3.46\pic18-lt\cxx-framework\src\traditional\proc\p18f67j60.asm
                AppConfig   0x0007a1       data     extern D:\fei\MPLABXProjects\ENIAC\Setup.c
                  BAUDCON   0x000f7e       data     extern E:\c18v3.46\pic18-lt\cxx-framework\src\traditional\proc\p18f67j60.asm
                 BAUDCON1   0x000f7e       data     extern E:\c18v3.46\pic18-lt\cxx-framework\src\traditional\proc\p18f67j60.asm
             BAUDCON1bits   0x000f7e       data     extern E:\c18v3.46\pic18-lt\cxx-framework\src\traditional\proc\p18f67j60.asm
              BAUDCONbits   0x000f7e       data     extern E:\c18v3.46\pic18-lt\cxx-framework\src\traditional\proc\p18f67j60.asm
                  BAUDCTL   0x000f7e       data     extern E:\c18v3.46\pic18-lt\cxx-framework\src\traditional\proc\p18f67j60.asm
                 BAUDCTL1   0x000f7e       data     extern E:\c18v3.46\pic18-lt\cxx-framework\src\traditional\proc\p18f67j60.asm
             BAUDCTL1bits   0x000f7e       data     extern E:\c18v3.46\pic18-lt\cxx-framework\src\traditional\proc\p18f67j60.asm
              BAUDCTLbits   0x000f7e       data     extern E:\c18v3.46\pic18-lt\cxx-framework\src\traditional\proc\p18f67j60.asm
           BSDSocketArray   0x000700       data     static D:\fei\MPLABXProjects\ENIAC\Microchip\TCPIP Stack\BerkeleyAPI.c
                      BSR   0x000fe0       data     extern E:\c18v3.46\pic18-lt\cxx-framework\src\traditional\proc\p18f67j60.asm
                  CCP1CON   0x000fbd       data     extern E:\c18v3.46\pic18-lt\cxx-framework\src\traditional\proc\p18f67j60.asm
              CCP1CONbits   0x000fbd       data     extern E:\c18v3.46\pic18-lt\cxx-framework\src\traditional\proc\p18f67j60.asm
                  CCP2CON   0x000fba       data     extern E:\c18v3.46\pic18-lt\cxx-framework\src\traditional\proc\p18f67j60.asm
              CCP2CONbits   0x000fba       data     extern E:\c18v3.46\pic18-lt\cxx-framework\src\traditional\proc\p18f67j60.asm
                  CCP3CON   0x000fb7       data     extern E:\c18v3.46\pic18-lt\cxx-framework\src\traditional\proc\p18f67j60.asm
              CCP3CONbits   0x000fb7       data     extern E:\c18v3.46\pic18-lt\cxx-framework\src\traditional\proc\p18f67j60.asm
                  CCP4CON   0x000f73       data     extern E:\c18v3.46\pic18-lt\cxx-framework\src\traditional\proc\p18f67j60.asm
              CCP4CONbits   0x000f73       data     extern E:\c18v3.46\pic18-lt\cxx-framework\src\traditional\proc\p18f67j60.asm
                  CCP5CON   0x000f70       data     extern E:\c18v3.46\pic18-lt\cxx-framework\src\traditional\proc\p18f67j60.asm
              CCP5CONbits   0x000f70       data     extern E:\c18v3.46\pic18-lt\cxx-framework\src\traditional\proc\p18f67j60.asm
                    CCPR1   0x000fbe       data     extern E:\c18v3.46\pic18-lt\cxx-framework\src\traditional\proc\p18f67j60.asm
                   CCPR1H   0x000fbf       data     extern E:\c18v3.46\pic18-lt\cxx-framework\src\traditional\proc\p18f67j60.asm
                   CCPR1L   0x000fbe       data     extern E:\c18v3.46\pic18-lt\cxx-framework\src\traditional\proc\p18f67j60.asm
                    CCPR2   0x000fbb       data     extern E:\c18v3.46\pic18-lt\cxx-framework\src\traditional\proc\p18f67j60.asm
                   CCPR2H   0x000fbc       data     extern E:\c18v3.46\pic18-lt\cxx-framework\src\traditional\proc\p18f67j60.asm
                   CCPR2L   0x000fbb       data     extern E:\c18v3.46\pic18-lt\cxx-framework\src\traditional\proc\p18f67j60.asm
                    CCPR3   0x000fb8       data     extern E:\c18v3.46\pic18-lt\cxx-framework\src\traditional\proc\p18f67j60.asm
                   CCPR3H   0x000fb9       data     extern E:\c18v3.46\pic18-lt\cxx-framework\src\traditional\proc\p18f67j60.asm
                   CCPR3L   0x000fb8       data     extern E:\c18v3.46\pic18-lt\cxx-framework\src\traditional\proc\p18f67j60.asm
                    CCPR4   0x000f74       data     extern E:\c18v3.46\pic18-lt\cxx-framework\src\traditional\proc\p18f67j60.asm
                   CCPR4H   0x000f75       data     extern E:\c18v3.46\pic18-lt\cxx-framework\src\traditional\proc\p18f67j60.asm
                   CCPR4L   0x000f74       data     extern E:\c18v3.46\pic18-lt\cxx-framework\src\traditional\proc\p18f67j60.asm
                    CCPR5   0x000f71       data     extern E:\c18v3.46\pic18-lt\cxx-framework\src\traditional\proc\p18f67j60.asm
                   CCPR5H   0x000f72       data     extern E:\c18v3.46\pic18-lt\cxx-framework\src\traditional\proc\p18f67j60.asm
                   CCPR5L   0x000f71       data     extern E:\c18v3.46\pic18-lt\cxx-framework\src\traditional\proc\p18f67j60.asm
                    CMCON   0x000fb4       data     extern E:\c18v3.46\pic18-lt\cxx-framework\src\traditional\proc\p18f67j60.asm
                CMCONbits   0x000fb4       data     extern E:\c18v3.46\pic18-lt\cxx-framework\src\traditional\proc\p18f67j60.asm
                   CVRCON   0x000fb5       data     extern E:\c18v3.46\pic18-lt\cxx-framework\src\traditional\proc\p18f67j60.asm
               CVRCONbits   0x000fb5       data     extern E:\c18v3.46\pic18-lt\cxx-framework\src\traditional\proc\p18f67j60.asm
                    Cache   0x0007ec       data     static D:\fei\MPLABXProjects\ENIAC\Microchip\TCPIP Stack\ARP.c
    CurrentPacketLocation   0x00081a       data     static D:\fei\MPLABXProjects\ENIAC\Microchip\TCPIP Stack\ETH97J60.c
                     DDRA   0x000f92       data     extern E:\c18v3.46\pic18-lt\cxx-framework\src\traditional\proc\p18f67j60.asm
                 DDRAbits   0x000f92       data     extern E:\c18v3.46\pic18-lt\cxx-framework\src\traditional\proc\p18f67j60.asm
                     DDRB   0x000f93       data     extern E:\c18v3.46\pic18-lt\cxx-framework\src\traditional\proc\p18f67j60.asm
                 DDRBbits   0x000f93       data     extern E:\c18v3.46\pic18-lt\cxx-framework\src\traditional\proc\p18f67j60.asm
                     DDRC   0x000f94       data     extern E:\c18v3.46\pic18-lt\cxx-framework\src\traditional\proc\p18f67j60.asm
                 DDRCbits   0x000f94       data     extern E:\c18v3.46\pic18-lt\cxx-framework\src\traditional\proc\p18f67j60.asm
                     DDRD   0x000f95       data     extern E:\c18v3.46\pic18-lt\cxx-framework\src\traditional\proc\p18f67j60.asm
                 DDRDbits   0x000f95       data     extern E:\c18v3.46\pic18-lt\cxx-framework\src\traditional\proc\p18f67j60.asm
                     DDRE   0x000f96       data     extern E:\c18v3.46\pic18-lt\cxx-framework\src\traditional\proc\p18f67j60.asm
                 DDREbits   0x000f96       data     extern E:\c18v3.46\pic18-lt\cxx-framework\src\traditional\proc\p18f67j60.asm
                     DDRF   0x000f97       data     extern E:\c18v3.46\pic18-lt\cxx-framework\src\traditional\proc\p18f67j60.asm
                 DDRFbits   0x000f97       data     extern E:\c18v3.46\pic18-lt\cxx-framework\src\traditional\proc\p18f67j60.asm
                     DDRG   0x000f98       data     extern E:\c18v3.46\pic18-lt\cxx-framework\src\traditional\proc\p18f67j60.asm
                 DDRGbits   0x000f98       data     extern E:\c18v3.46\pic18-lt\cxx-framework\src\traditional\proc\p18f67j60.asm
               DHCPClient   0x0005d9       data     static D:\fei\MPLABXProjects\ENIAC\Microchip\TCPIP Stack\DHCP.c
DHCPClientInitializedOnce   0x00085a       data     extern D:\fei\MPLABXProjects\ENIAC\Microchip\TCPIP Stack\DHCP.c
              DiscoverySM   0x00085b       data     static D:\fei\MPLABXProjects\ENIAC\Microchip\TCPIP Stack\Announce.c
                  ECCP1AS   0x000fb6       data     extern E:\c18v3.46\pic18-lt\cxx-framework\src\traditional\proc\p18f67j60.asm
              ECCP1ASbits   0x000fb6       data     extern E:\c18v3.46\pic18-lt\cxx-framework\src\traditional\proc\p18f67j60.asm
                 ECCP1CON   0x000fbd       data     extern E:\c18v3.46\pic18-lt\cxx-framework\src\traditional\proc\p18f67j60.asm
             ECCP1CONbits   0x000fbd       data     extern E:\c18v3.46\pic18-lt\cxx-framework\src\traditional\proc\p18f67j60.asm
                 ECCP1DEL   0x000f79       data     extern E:\c18v3.46\pic18-lt\cxx-framework\src\traditional\proc\p18f67j60.asm
             ECCP1DELbits   0x000f79       data     extern E:\c18v3.46\pic18-lt\cxx-framework\src\traditional\proc\p18f67j60.asm
                  ECCP2AS   0x000f68       data     extern E:\c18v3.46\pic18-lt\cxx-framework\src\traditional\proc\p18f67j60.asm
              ECCP2ASbits   0x000f68       data     extern E:\c18v3.46\pic18-lt\cxx-framework\src\traditional\proc\p18f67j60.asm
                 ECCP2CON   0x000fba       data     extern E:\c18v3.46\pic18-lt\cxx-framework\src\traditional\proc\p18f67j60.asm
             ECCP2CONbits   0x000fba       data     extern E:\c18v3.46\pic18-lt\cxx-framework\src\traditional\proc\p18f67j60.asm
                 ECCP2DEL   0x000f67       data     extern E:\c18v3.46\pic18-lt\cxx-framework\src\traditional\proc\p18f67j60.asm
             ECCP2DELbits   0x000f67       data     extern E:\c18v3.46\pic18-lt\cxx-framework\src\traditional\proc\p18f67j60.asm
                  ECCP3AS   0x000f6a       data     extern E:\c18v3.46\pic18-lt\cxx-framework\src\traditional\proc\p18f67j60.asm
              ECCP3ASbits   0x000f6a       data     extern E:\c18v3.46\pic18-lt\cxx-framework\src\traditional\proc\p18f67j60.asm
                 ECCP3CON   0x000fb7       data     extern E:\c18v3.46\pic18-lt\cxx-framework\src\traditional\proc\p18f67j60.asm
             ECCP3CONbits   0x000fb7       data     extern E:\c18v3.46\pic18-lt\cxx-framework\src\traditional\proc\p18f67j60.asm
                 ECCP3DEL   0x000f69       data     extern E:\c18v3.46\pic18-lt\cxx-framework\src\traditional\proc\p18f67j60.asm
             ECCP3DELbits   0x000f69       data     extern E:\c18v3.46\pic18-lt\cxx-framework\src\traditional\proc\p18f67j60.asm
                    ECON1   0x000fd2       data     extern E:\c18v3.46\pic18-lt\cxx-framework\src\traditional\proc\p18f67j60.asm
                ECON1bits   0x000fd2       data     extern E:\c18v3.46\pic18-lt\cxx-framework\src\traditional\proc\p18f67j60.asm
                    ECON2   0x000efe       data     extern E:\c18v3.46\pic18-lt\cxx-framework\src\traditional\proc\p18f67j60.asm
                ECON2bits   0x000efe       data     extern E:\c18v3.46\pic18-lt\cxx-framework\src\traditional\proc\p18f67j60.asm
                    EDATA   0x000f61       data     extern E:\c18v3.46\pic18-lt\cxx-framework\src\traditional\proc\p18f67j60.asm
                EDATAbits   0x000f61       data     extern E:\c18v3.46\pic18-lt\cxx-framework\src\traditional\proc\p18f67j60.asm
                   EDMACS   0x000ef6       data     extern E:\c18v3.46\pic18-lt\cxx-framework\src\traditional\proc\p18f67j60.asm
                  EDMACSH   0x000ef7       data     extern E:\c18v3.46\pic18-lt\cxx-framework\src\traditional\proc\p18f67j60.asm
                  EDMACSL   0x000ef6       data     extern E:\c18v3.46\pic18-lt\cxx-framework\src\traditional\proc\p18f67j60.asm
                  EDMADST   0x000ef4       data     extern E:\c18v3.46\pic18-lt\cxx-framework\src\traditional\proc\p18f67j60.asm
                 EDMADSTH   0x000ef5       data     extern E:\c18v3.46\pic18-lt\cxx-framework\src\traditional\proc\p18f67j60.asm
                 EDMADSTL   0x000ef4       data     extern E:\c18v3.46\pic18-lt\cxx-framework\src\traditional\proc\p18f67j60.asm
                   EDMAND   0x000ef2       data     extern E:\c18v3.46\pic18-lt\cxx-framework\src\traditional\proc\p18f67j60.asm
                  EDMANDH   0x000ef3       data     extern E:\c18v3.46\pic18-lt\cxx-framework\src\traditional\proc\p18f67j60.asm
                  EDMANDL   0x000ef2       data     extern E:\c18v3.46\pic18-lt\cxx-framework\src\traditional\proc\p18f67j60.asm
                   EDMAST   0x000ef0       data     extern E:\c18v3.46\pic18-lt\cxx-framework\src\traditional\proc\p18f67j60.asm
                  EDMASTH   0x000ef1       data     extern E:\c18v3.46\pic18-lt\cxx-framework\src\traditional\proc\p18f67j60.asm
                  EDMASTL   0x000ef0       data     extern E:\c18v3.46\pic18-lt\cxx-framework\src\traditional\proc\p18f67j60.asm
                   EECON1   0x000fa6       data     extern E:\c18v3.46\pic18-lt\cxx-framework\src\traditional\proc\p18f67j60.asm
               EECON1bits   0x000fa6       data     extern E:\c18v3.46\pic18-lt\cxx-framework\src\traditional\proc\p18f67j60.asm
                   EECON2   0x000fa7       data     extern E:\c18v3.46\pic18-lt\cxx-framework\src\traditional\proc\p18f67j60.asm
                  EFLOCON   0x000e97       data     extern E:\c18v3.46\pic18-lt\cxx-framework\src\traditional\proc\p18f67j60.asm
              EFLOCONbits   0x000e97       data     extern E:\c18v3.46\pic18-lt\cxx-framework\src\traditional\proc\p18f67j60.asm
                     EHT0   0x000ec0       data     extern E:\c18v3.46\pic18-lt\cxx-framework\src\traditional\proc\p18f67j60.asm
                     EHT1   0x000ec1       data     extern E:\c18v3.46\pic18-lt\cxx-framework\src\traditional\proc\p18f67j60.asm
                     EHT2   0x000ec2       data     extern E:\c18v3.46\pic18-lt\cxx-framework\src\traditional\proc\p18f67j60.asm
                     EHT3   0x000ec3       data     extern E:\c18v3.46\pic18-lt\cxx-framework\src\traditional\proc\p18f67j60.asm
                     EHT4   0x000ec4       data     extern E:\c18v3.46\pic18-lt\cxx-framework\src\traditional\proc\p18f67j60.asm
                     EHT5   0x000ec5       data     extern E:\c18v3.46\pic18-lt\cxx-framework\src\traditional\proc\p18f67j60.asm
                     EHT6   0x000ec6       data     extern E:\c18v3.46\pic18-lt\cxx-framework\src\traditional\proc\p18f67j60.asm
                     EHT7   0x000ec7       data     extern E:\c18v3.46\pic18-lt\cxx-framework\src\traditional\proc\p18f67j60.asm
                      EIE   0x000efb       data     extern E:\c18v3.46\pic18-lt\cxx-framework\src\traditional\proc\p18f67j60.asm
                  EIEbits   0x000efb       data     extern E:\c18v3.46\pic18-lt\cxx-framework\src\traditional\proc\p18f67j60.asm
                      EIR   0x000f60       data     extern E:\c18v3.46\pic18-lt\cxx-framework\src\traditional\proc\p18f67j60.asm
                  EIRbits   0x000f60       data     extern E:\c18v3.46\pic18-lt\cxx-framework\src\traditional\proc\p18f67j60.asm
                    EPAUS   0x000e98       data     extern E:\c18v3.46\pic18-lt\cxx-framework\src\traditional\proc\p18f67j60.asm
                   EPAUSH   0x000e99       data     extern E:\c18v3.46\pic18-lt\cxx-framework\src\traditional\proc\p18f67j60.asm
                   EPAUSL   0x000e98       data     extern E:\c18v3.46\pic18-lt\cxx-framework\src\traditional\proc\p18f67j60.asm
                  EPKTCNT   0x000ed9       data     extern E:\c18v3.46\pic18-lt\cxx-framework\src\traditional\proc\p18f67j60.asm
                    EPMCS   0x000ed0       data     extern E:\c18v3.46\pic18-lt\cxx-framework\src\traditional\proc\p18f67j60.asm
                   EPMCSH   0x000ed1       data     extern E:\c18v3.46\pic18-lt\cxx-framework\src\traditional\proc\p18f67j60.asm
                   EPMCSL   0x000ed0       data     extern E:\c18v3.46\pic18-lt\cxx-framework\src\traditional\proc\p18f67j60.asm
                    EPMM0   0x000ec8       data     extern E:\c18v3.46\pic18-lt\cxx-framework\src\traditional\proc\p18f67j60.asm
                    EPMM1   0x000ec9       data     extern E:\c18v3.46\pic18-lt\cxx-framework\src\traditional\proc\p18f67j60.asm
                    EPMM2   0x000eca       data     extern E:\c18v3.46\pic18-lt\cxx-framework\src\traditional\proc\p18f67j60.asm
                    EPMM3   0x000ecb       data     extern E:\c18v3.46\pic18-lt\cxx-framework\src\traditional\proc\p18f67j60.asm
                    EPMM4   0x000ecc       data     extern E:\c18v3.46\pic18-lt\cxx-framework\src\traditional\proc\p18f67j60.asm
                    EPMM5   0x000ecd       data     extern E:\c18v3.46\pic18-lt\cxx-framework\src\traditional\proc\p18f67j60.asm
                    EPMM6   0x000ece       data     extern E:\c18v3.46\pic18-lt\cxx-framework\src\traditional\proc\p18f67j60.asm
                    EPMM7   0x000ecf       data     extern E:\c18v3.46\pic18-lt\cxx-framework\src\traditional\proc\p18f67j60.asm
                     EPMO   0x000ed4       data     extern E:\c18v3.46\pic18-lt\cxx-framework\src\traditional\proc\p18f67j60.asm
                    EPMOH   0x000ed5       data     extern E:\c18v3.46\pic18-lt\cxx-framework\src\traditional\proc\p18f67j60.asm
                    EPMOL   0x000ed4       data     extern E:\c18v3.46\pic18-lt\cxx-framework\src\traditional\proc\p18f67j60.asm
                    ERDPT   0x000f7a       data     extern E:\c18v3.46\pic18-lt\cxx-framework\src\traditional\proc\p18f67j60.asm
                   ERDPTH   0x000f7b       data     extern E:\c18v3.46\pic18-lt\cxx-framework\src\traditional\proc\p18f67j60.asm
                   ERDPTL   0x000f7a       data     extern E:\c18v3.46\pic18-lt\cxx-framework\src\traditional\proc\p18f67j60.asm
                  ERXFCON   0x000ed8       data     extern E:\c18v3.46\pic18-lt\cxx-framework\src\traditional\proc\p18f67j60.asm
              ERXFCONbits   0x000ed8       data     extern E:\c18v3.46\pic18-lt\cxx-framework\src\traditional\proc\p18f67j60.asm
                    ERXND   0x000eea       data     extern E:\c18v3.46\pic18-lt\cxx-framework\src\traditional\proc\p18f67j60.asm
                   ERXNDH   0x000eeb       data     extern E:\c18v3.46\pic18-lt\cxx-framework\src\traditional\proc\p18f67j60.asm
                   ERXNDL   0x000eea       data     extern E:\c18v3.46\pic18-lt\cxx-framework\src\traditional\proc\p18f67j60.asm
                  ERXRDPT   0x000eec       data     extern E:\c18v3.46\pic18-lt\cxx-framework\src\traditional\proc\p18f67j60.asm
                 ERXRDPTH   0x000eed       data     extern E:\c18v3.46\pic18-lt\cxx-framework\src\traditional\proc\p18f67j60.asm
                 ERXRDPTL   0x000eec       data     extern E:\c18v3.46\pic18-lt\cxx-framework\src\traditional\proc\p18f67j60.asm
                    ERXST   0x000ee8       data     extern E:\c18v3.46\pic18-lt\cxx-framework\src\traditional\proc\p18f67j60.asm
                   ERXSTH   0x000ee9       data     extern E:\c18v3.46\pic18-lt\cxx-framework\src\traditional\proc\p18f67j60.asm
                   ERXSTL   0x000ee8       data     extern E:\c18v3.46\pic18-lt\cxx-framework\src\traditional\proc\p18f67j60.asm
                  ERXWRPT   0x000eee       data     extern E:\c18v3.46\pic18-lt\cxx-framework\src\traditional\proc\p18f67j60.asm
                 ERXWRPTH   0x000eef       data     extern E:\c18v3.46\pic18-lt\cxx-framework\src\traditional\proc\p18f67j60.asm
                 ERXWRPTL   0x000eee       data     extern E:\c18v3.46\pic18-lt\cxx-framework\src\traditional\proc\p18f67j60.asm
                    ESTAT   0x000efd       data     extern E:\c18v3.46\pic18-lt\cxx-framework\src\traditional\proc\p18f67j60.asm
                ESTATbits   0x000efd       data     extern E:\c18v3.46\pic18-lt\cxx-framework\src\traditional\proc\p18f67j60.asm
                    ETXND   0x000ee6       data     extern E:\c18v3.46\pic18-lt\cxx-framework\src\traditional\proc\p18f67j60.asm
                   ETXNDH   0x000ee7       data     extern E:\c18v3.46\pic18-lt\cxx-framework\src\traditional\proc\p18f67j60.asm
                   ETXNDL   0x000ee6       data     extern E:\c18v3.46\pic18-lt\cxx-framework\src\traditional\proc\p18f67j60.asm
                    ETXST   0x000ee4       data     extern E:\c18v3.46\pic18-lt\cxx-framework\src\traditional\proc\p18f67j60.asm
                   ETXSTH   0x000ee5       data     extern E:\c18v3.46\pic18-lt\cxx-framework\src\traditional\proc\p18f67j60.asm
                   ETXSTL   0x000ee4       data     extern E:\c18v3.46\pic18-lt\cxx-framework\src\traditional\proc\p18f67j60.asm
                    EWRPT   0x000ee2       data     extern E:\c18v3.46\pic18-lt\cxx-framework\src\traditional\proc\p18f67j60.asm
                   EWRPTH   0x000ee3       data     extern E:\c18v3.46\pic18-lt\cxx-framework\src\traditional\proc\p18f67j60.asm
                   EWRPTL   0x000ee2       data     extern E:\c18v3.46\pic18-lt\cxx-framework\src\traditional\proc\p18f67j60.asm
                     FSR0   0x000fe9       data     extern E:\c18v3.46\pic18-lt\cxx-framework\src\traditional\proc\p18f67j60.asm
                    FSR0H   0x000fea       data     extern E:\c18v3.46\pic18-lt\cxx-framework\src\traditional\proc\p18f67j60.asm
                    FSR0L   0x000fe9       data     extern E:\c18v3.46\pic18-lt\cxx-framework\src\traditional\proc\p18f67j60.asm
                     FSR1   0x000fe1       data     extern E:\c18v3.46\pic18-lt\cxx-framework\src\traditional\proc\p18f67j60.asm
                    FSR1H   0x000fe2       data     extern E:\c18v3.46\pic18-lt\cxx-framework\src\traditional\proc\p18f67j60.asm
                    FSR1L   0x000fe1       data     extern E:\c18v3.46\pic18-lt\cxx-framework\src\traditional\proc\p18f67j60.asm
                     FSR2   0x000fd9       data     extern E:\c18v3.46\pic18-lt\cxx-framework\src\traditional\proc\p18f67j60.asm
                    FSR2H   0x000fda       data     extern E:\c18v3.46\pic18-lt\cxx-framework\src\traditional\proc\p18f67j60.asm
                    FSR2L   0x000fd9       data     extern E:\c18v3.46\pic18-lt\cxx-framework\src\traditional\proc\p18f67j60.asm
                    Flags   0x0006aa       data     static D:\fei\MPLABXProjects\ENIAC\Microchip\TCPIP Stack\UDP.c
                    INDF0   0x000fef       data     extern E:\c18v3.46\pic18-lt\cxx-framework\src\traditional\proc\p18f67j60.asm
                    INDF1   0x000fe7       data     extern E:\c18v3.46\pic18-lt\cxx-framework\src\traditional\proc\p18f67j60.asm
                    INDF2   0x000fdf       data     extern E:\c18v3.46\pic18-lt\cxx-framework\src\traditional\proc\p18f67j60.asm
                   INTCON   0x000ff2       data     extern E:\c18v3.46\pic18-lt\cxx-framework\src\traditional\proc\p18f67j60.asm
                  INTCON2   0x000ff1       data     extern E:\c18v3.46\pic18-lt\cxx-framework\src\traditional\proc\p18f67j60.asm
              INTCON2bits   0x000ff1       data     extern E:\c18v3.46\pic18-lt\cxx-framework\src\traditional\proc\p18f67j60.asm
                  INTCON3   0x000ff0       data     extern E:\c18v3.46\pic18-lt\cxx-framework\src\traditional\proc\p18f67j60.asm
              INTCON3bits   0x000ff0       data     extern E:\c18v3.46\pic18-lt\cxx-framework\src\traditional\proc\p18f67j60.asm
               INTCONbits   0x000ff2       data     extern E:\c18v3.46\pic18-lt\cxx-framework\src\traditional\proc\p18f67j60.asm
              IPHeaderLen   0x000856       data     static D:\fei\MPLABXProjects\ENIAC\Microchip\TCPIP Stack\IP.c
                     IPR1   0x000f9f       data     extern E:\c18v3.46\pic18-lt\cxx-framework\src\traditional\proc\p18f67j60.asm
                 IPR1bits   0x000f9f       data     extern E:\c18v3.46\pic18-lt\cxx-framework\src\traditional\proc\p18f67j60.asm
                     IPR2   0x000fa2       data     extern E:\c18v3.46\pic18-lt\cxx-framework\src\traditional\proc\p18f67j60.asm
                 IPR2bits   0x000fa2       data     extern E:\c18v3.46\pic18-lt\cxx-framework\src\traditional\proc\p18f67j60.asm
                     IPR3   0x000fa5       data     extern E:\c18v3.46\pic18-lt\cxx-framework\src\traditional\proc\p18f67j60.asm
                 IPR3bits   0x000fa5       data     extern E:\c18v3.46\pic18-lt\cxx-framework\src\traditional\proc\p18f67j60.asm
                     LATA   0x000f89       data     extern E:\c18v3.46\pic18-lt\cxx-framework\src\traditional\proc\p18f67j60.asm
                 LATAbits   0x000f89       data     extern E:\c18v3.46\pic18-lt\cxx-framework\src\traditional\proc\p18f67j60.asm
                     LATB   0x000f8a       data     extern E:\c18v3.46\pic18-lt\cxx-framework\src\traditional\proc\p18f67j60.asm
                 LATBbits   0x000f8a       data     extern E:\c18v3.46\pic18-lt\cxx-framework\src\traditional\proc\p18f67j60.asm
                     LATC   0x000f8b       data     extern E:\c18v3.46\pic18-lt\cxx-framework\src\traditional\proc\p18f67j60.asm
                 LATCbits   0x000f8b       data     extern E:\c18v3.46\pic18-lt\cxx-framework\src\traditional\proc\p18f67j60.asm
                     LATD   0x000f8c       data     extern E:\c18v3.46\pic18-lt\cxx-framework\src\traditional\proc\p18f67j60.asm
                 LATDbits   0x000f8c       data     extern E:\c18v3.46\pic18-lt\cxx-framework\src\traditional\proc\p18f67j60.asm
                     LATE   0x000f8d       data     extern E:\c18v3.46\pic18-lt\cxx-framework\src\traditional\proc\p18f67j60.asm
                 LATEbits   0x000f8d       data     extern E:\c18v3.46\pic18-lt\cxx-framework\src\traditional\proc\p18f67j60.asm
                     LATF   0x000f8e       data     extern E:\c18v3.46\pic18-lt\cxx-framework\src\traditional\proc\p18f67j60.asm
                 LATFbits   0x000f8e       data     extern E:\c18v3.46\pic18-lt\cxx-framework\src\traditional\proc\p18f67j60.asm
                     LATG   0x000f8f       data     extern E:\c18v3.46\pic18-lt\cxx-framework\src\traditional\proc\p18f67j60.asm
                 LATGbits   0x000f8f       data     extern E:\c18v3.46\pic18-lt\cxx-framework\src\traditional\proc\p18f67j60.asm
            LastPutSocket   0x00084e       data     static D:\fei\MPLABXProjects\ENIAC\Microchip\TCPIP Stack\UDP.c
                   MAADR1   0x000e84       data     extern E:\c18v3.46\pic18-lt\cxx-framework\src\traditional\proc\p18f67j60.asm
                   MAADR2   0x000e85       data     extern E:\c18v3.46\pic18-lt\cxx-framework\src\traditional\proc\p18f67j60.asm
                   MAADR3   0x000e82       data     extern E:\c18v3.46\pic18-lt\cxx-framework\src\traditional\proc\p18f67j60.asm
                   MAADR4   0x000e83       data     extern E:\c18v3.46\pic18-lt\cxx-framework\src\traditional\proc\p18f67j60.asm
                   MAADR5   0x000e80       data     extern E:\c18v3.46\pic18-lt\cxx-framework\src\traditional\proc\p18f67j60.asm
                   MAADR6   0x000e81       data     extern E:\c18v3.46\pic18-lt\cxx-framework\src\traditional\proc\p18f67j60.asm
                  MABBIPG   0x000ea4       data     extern E:\c18v3.46\pic18-lt\cxx-framework\src\traditional\proc\p18f67j60.asm
              MABBIPGbits   0x000ea4       data     extern E:\c18v3.46\pic18-lt\cxx-framework\src\traditional\proc\p18f67j60.asm
                   MACON1   0x000ea0       data     extern E:\c18v3.46\pic18-lt\cxx-framework\src\traditional\proc\p18f67j60.asm
               MACON1bits   0x000ea0       data     extern E:\c18v3.46\pic18-lt\cxx-framework\src\traditional\proc\p18f67j60.asm
                   MACON3   0x000ea2       data     extern E:\c18v3.46\pic18-lt\cxx-framework\src\traditional\proc\p18f67j60.asm
               MACON3bits   0x000ea2       data     extern E:\c18v3.46\pic18-lt\cxx-framework\src\traditional\proc\p18f67j60.asm
                   MACON4   0x000ea3       data     extern E:\c18v3.46\pic18-lt\cxx-framework\src\traditional\proc\p18f67j60.asm
               MACON4bits   0x000ea3       data     extern E:\c18v3.46\pic18-lt\cxx-framework\src\traditional\proc\p18f67j60.asm
                    MAIPG   0x000ea6       data     extern E:\c18v3.46\pic18-lt\cxx-framework\src\traditional\proc\p18f67j60.asm
                   MAIPGH   0x000ea7       data     extern E:\c18v3.46\pic18-lt\cxx-framework\src\traditional\proc\p18f67j60.asm
                   MAIPGL   0x000ea6       data     extern E:\c18v3.46\pic18-lt\cxx-framework\src\traditional\proc\p18f67j60.asm
                   MAMXFL   0x000eaa       data     extern E:\c18v3.46\pic18-lt\cxx-framework\src\traditional\proc\p18f67j60.asm
                  MAMXFLH   0x000eab       data     extern E:\c18v3.46\pic18-lt\cxx-framework\src\traditional\proc\p18f67j60.asm
                  MAMXFLL   0x000eaa       data     extern E:\c18v3.46\pic18-lt\cxx-framework\src\traditional\proc\p18f67j60.asm
                    MICMD   0x000eb2       data     extern E:\c18v3.46\pic18-lt\cxx-framework\src\traditional\proc\p18f67j60.asm
                MICMDbits   0x000eb2       data     extern E:\c18v3.46\pic18-lt\cxx-framework\src\traditional\proc\p18f67j60.asm
                     MIRD   0x000eb8       data     extern E:\c18v3.46\pic18-lt\cxx-framework\src\traditional\proc\p18f67j60.asm
                    MIRDH   0x000eb9       data     extern E:\c18v3.46\pic18-lt\cxx-framework\src\traditional\proc\p18f67j60.asm
                    MIRDL   0x000eb8       data     extern E:\c18v3.46\pic18-lt\cxx-framework\src\traditional\proc\p18f67j60.asm
                 MIREGADR   0x000eb4       data     extern E:\c18v3.46\pic18-lt\cxx-framework\src\traditional\proc\p18f67j60.asm
                   MISTAT   0x000e8a       data     extern E:\c18v3.46\pic18-lt\cxx-framework\src\traditional\proc\p18f67j60.asm
               MISTATbits   0x000e8a       data     extern E:\c18v3.46\pic18-lt\cxx-framework\src\traditional\proc\p18f67j60.asm
                     MIWR   0x000eb6       data     extern E:\c18v3.46\pic18-lt\cxx-framework\src\traditional\proc\p18f67j60.asm
                    MIWRH   0x000eb7       data     extern E:\c18v3.46\pic18-lt\cxx-framework\src\traditional\proc\p18f67j60.asm
                    MIWRL   0x000eb6       data     extern E:\c18v3.46\pic18-lt\cxx-framework\src\traditional\proc\p18f67j60.asm
                 MySocket   0x000857       data     static D:\fei\MPLABXProjects\ENIAC\Microchip\TCPIP Stack\Announce.c
                    MyTCB   0x0006af       data     static D:\fei\MPLABXProjects\ENIAC\Microchip\TCPIP Stack\TCP.c
                MyTCBStub   0x0006d6       data     static D:\fei\MPLABXProjects\ENIAC\Microchip\TCPIP Stack\TCP.c
       NextPacketLocation   0x000818       data     static D:\fei\MPLABXProjects\ENIAC\Microchip\TCPIP Stack\ETH97J60.c
                 NextPort   0x0006ad       data     static D:\fei\MPLABXProjects\ENIAC\Microchip\TCPIP Stack\TCP.c
                 NextPort   0x0006ab       data     static D:\fei\MPLABXProjects\ENIAC\Microchip\TCPIP Stack\UDP.c
                   OSCCON   0x000fd3       data     extern E:\c18v3.46\pic18-lt\cxx-framework\src\traditional\proc\p18f67j60.asm
               OSCCONbits   0x000fd3       data     extern E:\c18v3.46\pic18-lt\cxx-framework\src\traditional\proc\p18f67j60.asm
                  OSCTUNE   0x000f9b       data     extern E:\c18v3.46\pic18-lt\cxx-framework\src\traditional\proc\p18f67j60.asm
              OSCTUNEbits   0x000f9b       data     extern E:\c18v3.46\pic18-lt\cxx-framework\src\traditional\proc\p18f67j60.asm
                       PC   0x000ff9       data     extern E:\c18v3.46\pic18-lt\cxx-framework\src\traditional\proc\p18f67j60.asm
                      PCL   0x000ff9       data     extern E:\c18v3.46\pic18-lt\cxx-framework\src\traditional\proc\p18f67j60.asm
                   PCLATH   0x000ffa       data     extern E:\c18v3.46\pic18-lt\cxx-framework\src\traditional\proc\p18f67j60.asm
                   PCLATU   0x000ffb       data     extern E:\c18v3.46\pic18-lt\cxx-framework\src\traditional\proc\p18f67j60.asm
                     PIE1   0x000f9d       data     extern E:\c18v3.46\pic18-lt\cxx-framework\src\traditional\proc\p18f67j60.asm
                 PIE1bits   0x000f9d       data     extern E:\c18v3.46\pic18-lt\cxx-framework\src\traditional\proc\p18f67j60.asm
                     PIE2   0x000fa0       data     extern E:\c18v3.46\pic18-lt\cxx-framework\src\traditional\proc\p18f67j60.asm
                 PIE2bits   0x000fa0       data     extern E:\c18v3.46\pic18-lt\cxx-framework\src\traditional\proc\p18f67j60.asm
                     PIE3   0x000fa3       data     extern E:\c18v3.46\pic18-lt\cxx-framework\src\traditional\proc\p18f67j60.asm
                 PIE3bits   0x000fa3       data     extern E:\c18v3.46\pic18-lt\cxx-framework\src\traditional\proc\p18f67j60.asm
                     PIR1   0x000f9e       data     extern E:\c18v3.46\pic18-lt\cxx-framework\src\traditional\proc\p18f67j60.asm
                 PIR1bits   0x000f9e       data     extern E:\c18v3.46\pic18-lt\cxx-framework\src\traditional\proc\p18f67j60.asm
                     PIR2   0x000fa1       data     extern E:\c18v3.46\pic18-lt\cxx-framework\src\traditional\proc\p18f67j60.asm
                 PIR2bits   0x000fa1       data     extern E:\c18v3.46\pic18-lt\cxx-framework\src\traditional\proc\p18f67j60.asm
                     PIR3   0x000fa4       data     extern E:\c18v3.46\pic18-lt\cxx-framework\src\traditional\proc\p18f67j60.asm
                 PIR3bits   0x000fa4       data     extern E:\c18v3.46\pic18-lt\cxx-framework\src\traditional\proc\p18f67j60.asm
                   PLUSW0   0x000feb       data     extern E:\c18v3.46\pic18-lt\cxx-framework\src\traditional\proc\p18f67j60.asm
                   PLUSW1   0x000fe3       data     extern E:\c18v3.46\pic18-lt\cxx-framework\src\traditional\proc\p18f67j60.asm
                   PLUSW2   0x000fdb       data     extern E:\c18v3.46\pic18-lt\cxx-framework\src\traditional\proc\p18f67j60.asm
                    PORTA   0x000f80       data     extern E:\c18v3.46\pic18-lt\cxx-framework\src\traditional\proc\p18f67j60.asm
                PORTAbits   0x000f80       data     extern E:\c18v3.46\pic18-lt\cxx-framework\src\traditional\proc\p18f67j60.asm
                    PORTB   0x000f81       data     extern E:\c18v3.46\pic18-lt\cxx-framework\src\traditional\proc\p18f67j60.asm
                PORTBbits   0x000f81       data     extern E:\c18v3.46\pic18-lt\cxx-framework\src\traditional\proc\p18f67j60.asm
                    PORTC   0x000f82       data     extern E:\c18v3.46\pic18-lt\cxx-framework\src\traditional\proc\p18f67j60.asm
                PORTCbits   0x000f82       data     extern E:\c18v3.46\pic18-lt\cxx-framework\src\traditional\proc\p18f67j60.asm
                    PORTD   0x000f83       data     extern E:\c18v3.46\pic18-lt\cxx-framework\src\traditional\proc\p18f67j60.asm
                PORTDbits   0x000f83       data     extern E:\c18v3.46\pic18-lt\cxx-framework\src\traditional\proc\p18f67j60.asm
                    PORTE   0x000f84       data     extern E:\c18v3.46\pic18-lt\cxx-framework\src\traditional\proc\p18f67j60.asm
                PORTEbits   0x000f84       data     extern E:\c18v3.46\pic18-lt\cxx-framework\src\traditional\proc\p18f67j60.asm
                    PORTF   0x000f85       data     extern E:\c18v3.46\pic18-lt\cxx-framework\src\traditional\proc\p18f67j60.asm
                PORTFbits   0x000f85       data     extern E:\c18v3.46\pic18-lt\cxx-framework\src\traditional\proc\p18f67j60.asm
                    PORTG   0x000f86       data     extern E:\c18v3.46\pic18-lt\cxx-framework\src\traditional\proc\p18f67j60.asm
                PORTGbits   0x000f86       data     extern E:\c18v3.46\pic18-lt\cxx-framework\src\traditional\proc\p18f67j60.asm
                 POSTDEC0   0x000fed       data     extern E:\c18v3.46\pic18-lt\cxx-framework\src\traditional\proc\p18f67j60.asm
                 POSTDEC1   0x000fe5       data     extern E:\c18v3.46\pic18-lt\cxx-framework\src\traditional\proc\p18f67j60.asm
                 POSTDEC2   0x000fdd       data     extern E:\c18v3.46\pic18-lt\cxx-framework\src\traditional\proc\p18f67j60.asm
                 POSTINC0   0x000fee       data     extern E:\c18v3.46\pic18-lt\cxx-framework\src\traditional\proc\p18f67j60.asm
                 POSTINC1   0x000fe6       data     extern E:\c18v3.46\pic18-lt\cxx-framework\src\traditional\proc\p18f67j60.asm
                 POSTINC2   0x000fde       data     extern E:\c18v3.46\pic18-lt\cxx-framework\src\traditional\proc\p18f67j60.asm
                      PR2   0x000fcb       data     extern E:\c18v3.46\pic18-lt\cxx-framework\src\traditional\proc\p18f67j60.asm
                      PR4   0x000f77       data     extern E:\c18v3.46\pic18-lt\cxx-framework\src\traditional\proc\p18f67j60.asm
                  PREINC0   0x000fec       data     extern E:\c18v3.46\pic18-lt\cxx-framework\src\traditional\proc\p18f67j60.asm
                  PREINC1   0x000fe4       data     extern E:\c18v3.46\pic18-lt\cxx-framework\src\traditional\proc\p18f67j60.asm
                  PREINC2   0x000fdc       data     extern E:\c18v3.46\pic18-lt\cxx-framework\src\traditional\proc\p18f67j60.asm
                     PROD   0x000ff3       data     extern E:\c18v3.46\pic18-lt\cxx-framework\src\traditional\proc\p18f67j60.asm
                    PRODH   0x000ff4       data     extern E:\c18v3.46\pic18-lt\cxx-framework\src\traditional\proc\p18f67j60.asm
                    PRODL   0x000ff3       data     extern E:\c18v3.46\pic18-lt\cxx-framework\src\traditional\proc\p18f67j60.asm
                     RCON   0x000fd0       data     extern E:\c18v3.46\pic18-lt\cxx-framework\src\traditional\proc\p18f67j60.asm
                 RCONbits   0x000fd0       data     extern E:\c18v3.46\pic18-lt\cxx-framework\src\traditional\proc\p18f67j60.asm
                    RCREG   0x000fae       data     extern E:\c18v3.46\pic18-lt\cxx-framework\src\traditional\proc\p18f67j60.asm
                   RCREG1   0x000fae       data     extern E:\c18v3.46\pic18-lt\cxx-framework\src\traditional\proc\p18f67j60.asm
                    RCSTA   0x000fab       data     extern E:\c18v3.46\pic18-lt\cxx-framework\src\traditional\proc\p18f67j60.asm
                   RCSTA1   0x000fab       data     extern E:\c18v3.46\pic18-lt\cxx-framework\src\traditional\proc\p18f67j60.asm
               RCSTA1bits   0x000fab       data     extern E:\c18v3.46\pic18-lt\cxx-framework\src\traditional\proc\p18f67j60.asm
                RCSTAbits   0x000fab       data     extern E:\c18v3.46\pic18-lt\cxx-framework\src\traditional\proc\p18f67j60.asm
               RemoteInfo   0x0006f2       data     static D:\fei\MPLABXProjects\ENIAC\Microchip\TCPIP Stack\TCP.c
                     SIGN   0x00001e       data     extern E:\c18v3.46\pic18-lt\cxx-framework\src\traditional\math\cmath18.asm
                    SPBRG   0x000faf       data     extern E:\c18v3.46\pic18-lt\cxx-framework\src\traditional\proc\p18f67j60.asm
                   SPBRG1   0x000faf       data     extern E:\c18v3.46\pic18-lt\cxx-framework\src\traditional\proc\p18f67j60.asm
                   SPBRGH   0x000f7f       data     extern E:\c18v3.46\pic18-lt\cxx-framework\src\traditional\proc\p18f67j60.asm
                  SPBRGH1   0x000f7f       data     extern E:\c18v3.46\pic18-lt\cxx-framework\src\traditional\proc\p18f67j60.asm
                  SSP1ADD   0x000fc8       data     extern E:\c18v3.46\pic18-lt\cxx-framework\src\traditional\proc\p18f67j60.asm
                  SSP1BUF   0x000fc9       data     extern E:\c18v3.46\pic18-lt\cxx-framework\src\traditional\proc\p18f67j60.asm
                 SSP1CON1   0x000fc6       data     extern E:\c18v3.46\pic18-lt\cxx-framework\src\traditional\proc\p18f67j60.asm
             SSP1CON1bits   0x000fc6       data     extern E:\c18v3.46\pic18-lt\cxx-framework\src\traditional\proc\p18f67j60.asm
                 SSP1CON2   0x000fc5       data     extern E:\c18v3.46\pic18-lt\cxx-framework\src\traditional\proc\p18f67j60.asm
             SSP1CON2bits   0x000fc5       data     extern E:\c18v3.46\pic18-lt\cxx-framework\src\traditional\proc\p18f67j60.asm
                 SSP1STAT   0x000fc7       data     extern E:\c18v3.46\pic18-lt\cxx-framework\src\traditional\proc\p18f67j60.asm
             SSP1STATbits   0x000fc7       data     extern E:\c18v3.46\pic18-lt\cxx-framework\src\traditional\proc\p18f67j60.asm
                   SSPADD   0x000fc8       data     extern E:\c18v3.46\pic18-lt\cxx-framework\src\traditional\proc\p18f67j60.asm
                   SSPBUF   0x000fc9       data     extern E:\c18v3.46\pic18-lt\cxx-framework\src\traditional\proc\p18f67j60.asm
                  SSPCON1   0x000fc6       data     extern E:\c18v3.46\pic18-lt\cxx-framework\src\traditional\proc\p18f67j60.asm
              SSPCON1bits   0x000fc6       data     extern E:\c18v3.46\pic18-lt\cxx-framework\src\traditional\proc\p18f67j60.asm
                  SSPCON2   0x000fc5       data     extern E:\c18v3.46\pic18-lt\cxx-framework\src\traditional\proc\p18f67j60.asm
              SSPCON2bits   0x000fc5       data     extern E:\c18v3.46\pic18-lt\cxx-framework\src\traditional\proc\p18f67j60.asm
                  SSPSTAT   0x000fc7       data     extern E:\c18v3.46\pic18-lt\cxx-framework\src\traditional\proc\p18f67j60.asm
              SSPSTATbits   0x000fc7       data     extern E:\c18v3.46\pic18-lt\cxx-framework\src\traditional\proc\p18f67j60.asm
                   STATUS   0x000fd8       data     extern E:\c18v3.46\pic18-lt\cxx-framework\src\traditional\proc\p18f67j60.asm
               STATUSbits   0x000fd8       data     extern E:\c18v3.46\pic18-lt\cxx-framework\src\traditional\proc\p18f67j60.asm
                   STKPTR   0x000ffc       data     extern E:\c18v3.46\pic18-lt\cxx-framework\src\traditional\proc\p18f67j60.asm
               STKPTRbits   0x000ffc       data     extern E:\c18v3.46\pic18-lt\cxx-framework\src\traditional\proc\p18f67j60.asm
                 SYNQueue   0x000f00       data     static D:\fei\MPLABXProjects\ENIAC\Microchip\TCPIP Stack\TCP.c
         SocketWithRxData   0x00084f       data     static D:\fei\MPLABXProjects\ENIAC\Microchip\TCPIP Stack\UDP.c
                    T0CON   0x000fd5       data     extern E:\c18v3.46\pic18-lt\cxx-framework\src\traditional\proc\p18f67j60.asm
                T0CONbits   0x000fd5       data     extern E:\c18v3.46\pic18-lt\cxx-framework\src\traditional\proc\p18f67j60.asm
                    T1CON   0x000fcd       data     extern E:\c18v3.46\pic18-lt\cxx-framework\src\traditional\proc\p18f67j60.asm
                T1CONbits   0x000fcd       data     extern E:\c18v3.46\pic18-lt\cxx-framework\src\traditional\proc\p18f67j60.asm
                    T2CON   0x000fca       data     extern E:\c18v3.46\pic18-lt\cxx-framework\src\traditional\proc\p18f67j60.asm
                T2CONbits   0x000fca       data     extern E:\c18v3.46\pic18-lt\cxx-framework\src\traditional\proc\p18f67j60.asm
                    T3CON   0x000fb1       data     extern E:\c18v3.46\pic18-lt\cxx-framework\src\traditional\proc\p18f67j60.asm
                T3CONbits   0x000fb1       data     extern E:\c18v3.46\pic18-lt\cxx-framework\src\traditional\proc\p18f67j60.asm
                    T4CON   0x000f76       data     extern E:\c18v3.46\pic18-lt\cxx-framework\src\traditional\proc\p18f67j60.asm
                T4CONbits   0x000f76       data     extern E:\c18v3.46\pic18-lt\cxx-framework\src\traditional\proc\p18f67j60.asm
                   TABLAT   0x000ff5       data     extern E:\c18v3.46\pic18-lt\cxx-framework\src\traditional\proc\p18f67j60.asm
                   TBLPTR   0x000ff6       data     extern E:\c18v3.46\pic18-lt\cxx-framework\src\traditional\proc\p18f67j60.asm
                  TBLPTRH   0x000ff7       data     extern E:\c18v3.46\pic18-lt\cxx-framework\src\traditional\proc\p18f67j60.asm
                  TBLPTRL   0x000ff6       data     extern E:\c18v3.46\pic18-lt\cxx-framework\src\traditional\proc\p18f67j60.asm
                  TBLPTRU   0x000ff8       data     extern E:\c18v3.46\pic18-lt\cxx-framework\src\traditional\proc\p18f67j60.asm
                 TCBStubs   0x000769       data     static D:\fei\MPLABXProjects\ENIAC\Microchip\TCPIP Stack\TCP.c
                    TMR0H   0x000fd7       data     extern E:\c18v3.46\pic18-lt\cxx-framework\src\traditional\proc\p18f67j60.asm
                    TMR0L   0x000fd6       data     extern E:\c18v3.46\pic18-lt\cxx-framework\src\traditional\proc\p18f67j60.asm
                    TMR1H   0x000fcf       data     extern E:\c18v3.46\pic18-lt\cxx-framework\src\traditional\proc\p18f67j60.asm
                    TMR1L   0x000fce       data     extern E:\c18v3.46\pic18-lt\cxx-framework\src\traditional\proc\p18f67j60.asm
                     TMR2   0x000fcc       data     extern E:\c18v3.46\pic18-lt\cxx-framework\src\traditional\proc\p18f67j60.asm
                    TMR3H   0x000fb3       data     extern E:\c18v3.46\pic18-lt\cxx-framework\src\traditional\proc\p18f67j60.asm
                    TMR3L   0x000fb2       data     extern E:\c18v3.46\pic18-lt\cxx-framework\src\traditional\proc\p18f67j60.asm
                     TMR4   0x000f78       data     extern E:\c18v3.46\pic18-lt\cxx-framework\src\traditional\proc\p18f67j60.asm
                      TOS   0x000ffd       data     extern E:\c18v3.46\pic18-lt\cxx-framework\src\traditional\proc\p18f67j60.asm
                     TOSH   0x000ffe       data     extern E:\c18v3.46\pic18-lt\cxx-framework\src\traditional\proc\p18f67j60.asm
                     TOSL   0x000ffd       data     extern E:\c18v3.46\pic18-lt\cxx-framework\src\traditional\proc\p18f67j60.asm
                     TOSU   0x000fff       data     extern E:\c18v3.46\pic18-lt\cxx-framework\src\traditional\proc\p18f67j60.asm
                    TRISA   0x000f92       data     extern E:\c18v3.46\pic18-lt\cxx-framework\src\traditional\proc\p18f67j60.asm
                TRISAbits   0x000f92       data     extern E:\c18v3.46\pic18-lt\cxx-framework\src\traditional\proc\p18f67j60.asm
                    TRISB   0x000f93       data     extern E:\c18v3.46\pic18-lt\cxx-framework\src\traditional\proc\p18f67j60.asm
                TRISBbits   0x000f93       data     extern E:\c18v3.46\pic18-lt\cxx-framework\src\traditional\proc\p18f67j60.asm
                    TRISC   0x000f94       data     extern E:\c18v3.46\pic18-lt\cxx-framework\src\traditional\proc\p18f67j60.asm
                TRISCbits   0x000f94       data     extern E:\c18v3.46\pic18-lt\cxx-framework\src\traditional\proc\p18f67j60.asm
                    TRISD   0x000f95       data     extern E:\c18v3.46\pic18-lt\cxx-framework\src\traditional\proc\p18f67j60.asm
                TRISDbits   0x000f95       data     extern E:\c18v3.46\pic18-lt\cxx-framework\src\traditional\proc\p18f67j60.asm
                    TRISE   0x000f96       data     extern E:\c18v3.46\pic18-lt\cxx-framework\src\traditional\proc\p18f67j60.asm
                TRISEbits   0x000f96       data     extern E:\c18v3.46\pic18-lt\cxx-framework\src\traditional\proc\p18f67j60.asm
                    TRISF   0x000f97       data     extern E:\c18v3.46\pic18-lt\cxx-framework\src\traditional\proc\p18f67j60.asm
                TRISFbits   0x000f97       data     extern E:\c18v3.46\pic18-lt\cxx-framework\src\traditional\proc\p18f67j60.asm
                    TRISG   0x000f98       data     extern E:\c18v3.46\pic18-lt\cxx-framework\src\traditional\proc\p18f67j60.asm
                TRISGbits   0x000f98       data     extern E:\c18v3.46\pic18-lt\cxx-framework\src\traditional\proc\p18f67j60.asm
                    TXREG   0x000fad       data     extern E:\c18v3.46\pic18-lt\cxx-framework\src\traditional\proc\p18f67j60.asm
                   TXREG1   0x000fad       data     extern E:\c18v3.46\pic18-lt\cxx-framework\src\traditional\proc\p18f67j60.asm
                    TXSTA   0x000fac       data     extern E:\c18v3.46\pic18-lt\cxx-framework\src\traditional\proc\p18f67j60.asm
                   TXSTA1   0x000fac       data     extern E:\c18v3.46\pic18-lt\cxx-framework\src\traditional\proc\p18f67j60.asm
               TXSTA1bits   0x000fac       data     extern E:\c18v3.46\pic18-lt\cxx-framework\src\traditional\proc\p18f67j60.asm
                TXSTAbits   0x000fac       data     extern E:\c18v3.46\pic18-lt\cxx-framework\src\traditional\proc\p18f67j60.asm
                   Target   0x0007f6       data     static D:\fei\MPLABXProjects\ENIAC\Microchip\TCPIP Stack\ARP.c
                    Timer   0x00083e       data     static D:\fei\MPLABXProjects\ENIAC\MPL3115A2.c
               UDPRxCount   0x0006a4       data     extern D:\fei\MPLABXProjects\ENIAC\Microchip\TCPIP Stack\UDP.c
            UDPSocketInfo   0x000600       data     extern D:\fei\MPLABXProjects\ENIAC\Microchip\TCPIP Stack\UDP.c
               UDPTxCount   0x0006a2       data     extern D:\fei\MPLABXProjects\ENIAC\Microchip\TCPIP Stack\UDP.c
                   WDTCON   0x000fd1       data     extern E:\c18v3.46\pic18-lt\cxx-framework\src\traditional\proc\p18f67j60.asm
               WDTCONbits   0x000fd1       data     extern E:\c18v3.46\pic18-lt\cxx-framework\src\traditional\proc\p18f67j60.asm
                     WREG   0x000fe8       data     extern E:\c18v3.46\pic18-lt\cxx-framework\src\traditional\proc\p18f67j60.asm
              _Identifier   0x000852       data     static D:\fei\MPLABXProjects\ENIAC\Microchip\TCPIP Stack\IP.c
                 __AARGB0   0x000027       data     extern E:\c18v3.46\pic18-lt\cxx-framework\src\traditional\math\aarg.asm
                 __AARGB1   0x000026       data     extern E:\c18v3.46\pic18-lt\cxx-framework\src\traditional\math\aarg.asm
                 __AARGB2   0x000025       data     extern E:\c18v3.46\pic18-lt\cxx-framework\src\traditional\math\aarg.asm
                 __AARGB3   0x000024       data     extern E:\c18v3.46\pic18-lt\cxx-framework\src\traditional\math\aarg.asm
                 __AARGB4   0x000023       data     extern E:\c18v3.46\pic18-lt\cxx-framework\src\traditional\math\aarg.asm
                 __AARGB5   0x000022       data     extern E:\c18v3.46\pic18-lt\cxx-framework\src\traditional\math\aarg.asm
                 __AARGB6   0x000021       data     extern E:\c18v3.46\pic18-lt\cxx-framework\src\traditional\math\aarg.asm
                 __AARGB7   0x000020       data     extern E:\c18v3.46\pic18-lt\cxx-framework\src\traditional\math\aarg.asm
                   __AEXP   0x000028       data     extern E:\c18v3.46\pic18-lt\cxx-framework\src\traditional\math\aarg.asm
                 __BARGB0   0x00002c       data     extern E:\c18v3.46\pic18-lt\cxx-framework\src\traditional\math\barg.asm
                 __BARGB1   0x00002b       data     extern E:\c18v3.46\pic18-lt\cxx-framework\src\traditional\math\barg.asm
                 __BARGB2   0x00002a       data     extern E:\c18v3.46\pic18-lt\cxx-framework\src\traditional\math\barg.asm
                 __BARGB3   0x000029       data     extern E:\c18v3.46\pic18-lt\cxx-framework\src\traditional\math\barg.asm
                   __BEXP   0x00002d       data     extern E:\c18v3.46\pic18-lt\cxx-framework\src\traditional\math\barg.asm
                __FPFLAGS   0x00001f       data     extern E:\c18v3.46\pic18-lt\cxx-framework\src\traditional\math\cmath18.asm
            __FPFLAGSbits   0x00001f       data     extern E:\c18v3.46\pic18-lt\cxx-framework\src\traditional\math\cmath18.asm
                  __REMB0   0x000023       data     extern E:\c18v3.46\pic18-lt\cxx-framework\src\traditional\math\aarg.asm
                  __REMB1   0x000022       data     extern E:\c18v3.46\pic18-lt\cxx-framework\src\traditional\math\aarg.asm
                  __REMB2   0x000021       data     extern E:\c18v3.46\pic18-lt\cxx-framework\src\traditional\math\aarg.asm
                  __REMB3   0x000020       data     extern E:\c18v3.46\pic18-lt\cxx-framework\src\traditional\math\aarg.asm
                   __TEMP   0x000031       data     extern E:\c18v3.46\pic18-lt\cxx-framework\src\traditional\math\temparg.asm
                 __TEMPB0   0x000031       data     extern E:\c18v3.46\pic18-lt\cxx-framework\src\traditional\math\temparg.asm
                 __TEMPB1   0x000030       data     extern E:\c18v3.46\pic18-lt\cxx-framework\src\traditional\math\temparg.asm
                 __TEMPB2   0x00002f       data     extern E:\c18v3.46\pic18-lt\cxx-framework\src\traditional\math\temparg.asm
                 __TEMPB3   0x00002e       data     extern E:\c18v3.46\pic18-lt\cxx-framework\src\traditional\math\temparg.asm
                  __tmp_0   0x000000       data     static E:\c18v3.46\pic18-lt\cxx-framework\src\pmc_common\i2c\i2c1writ.c
                  __tmp_0   0x000000       data     static E:\c18v3.46\pic18-lt\cxx-framework\src\pmc_common\ADC\adcopen.c
                  __tmp_0   0x000000       data     static E:\c18v3.46\pic18-lt\cxx-framework\src\traditional\stdclib\sin.c
                  __tmp_0   0x000000       data     static E:\c18v3.46\pic18-lt\cxx-framework\src\traditional\stdclib\sincos.c
                  __tmp_0   0x000000       data     static E:\c18v3.46\pic18-lt\cxx-framework\src\traditional\stdclib\UnpkMath.c
                  __tmp_0   0x000000       data     static E:\c18v3.46\pic18-lt\cxx-framework\src\traditional\stdclib\fabs.c
                  __tmp_0   0x000000       data     static D:\fei\MPLABXProjects\ENIAC\HIH-5031.c
                  __tmp_0   0x000000       data     static D:\fei\MPLABXProjects\ENIAC\Sensors.c
                  __tmp_0   0x000000       data     static D:\fei\MPLABXProjects\ENIAC\Microchip\TCPIP Stack\Announce.c
                  __tmp_0   0x000000       data     static D:\fei\MPLABXProjects\ENIAC\I2CHelpers.c
                  __tmp_0   0x000000       data     static D:\fei\MPLABXProjects\ENIAC\Microchip\TCPIP Stack\ARP.c
                  __tmp_0   0x000000       data     static D:\fei\MPLABXProjects\ENIAC\Microchip\TCPIP Stack\BerkeleyAPI.c
                  __tmp_0   0x000000       data     static D:\fei\MPLABXProjects\ENIAC\Microchip\TCPIP Stack\DHCP.c
                  __tmp_0   0x000000       data     static D:\fei\MPLABXProjects\ENIAC\MCP9808.c
                  __tmp_0   0x000000       data     static D:\fei\MPLABXProjects\ENIAC\MPL3115A2.c
                  __tmp_0   0x000000       data     static D:\fei\MPLABXProjects\ENIAC\Microchip\TCPIP Stack\ETH97J60.c
                  __tmp_0   0x000000       data     static D:\fei\MPLABXProjects\ENIAC\NodeUDPServer.c
                  __tmp_0   0x000000       data     static D:\fei\MPLABXProjects\ENIAC\Microchip\TCPIP Stack\Helpers.c
                  __tmp_0   0x000000       data     static D:\fei\MPLABXProjects\ENIAC\Microchip\TCPIP Stack\ICMP.c
                  __tmp_0   0x000000       data     static D:\fei\MPLABXProjects\ENIAC\Microchip\TCPIP Stack\IP.c
                  __tmp_0   0x000000       data     static D:\fei\MPLABXProjects\ENIAC\NodeUDPClient.c
                  __tmp_0   0x000000       data     static D:\fei\MPLABXProjects\ENIAC\Setup.c
                  __tmp_0   0x000000       data     static D:\fei\MPLABXProjects\ENIAC\7segment.c
                  __tmp_0   0x000000       data     static D:\fei\MPLABXProjects\ENIAC\Microchip\TCPIP Stack\StackTsk.c
                  __tmp_0   0x000000       data     static D:\fei\MPLABXProjects\ENIAC\Microchip\TCPIP Stack\UDP.c
                  __tmp_0   0x000000       data     static D:\fei\MPLABXProjects\ENIAC\NodeTCPClient1.c
                  __tmp_0   0x000000       data     static D:\fei\MPLABXProjects\ENIAC\Node.c
                  __tmp_0   0x000000       data     static D:\fei\MPLABXProjects\ENIAC\Microchip\TCPIP Stack\TCP.c
                  __tmp_0   0x000000       data     static D:\fei\MPLABXProjects\ENIAC\NodeTCPClient0.c
          activeUDPSocket   0x0006a1       data     extern D:\fei\MPLABXProjects\ENIAC\Microchip\TCPIP Stack\UDP.c
                        b   0x00084c       data     static D:\fei\MPLABXProjects\ENIAC\I2CHelpers.c
                        b   0x00084d       data     static D:\fei\MPLABXProjects\ENIAC\I2CHelpers.c
           bLastLinkState   0x000858       data     static D:\fei\MPLABXProjects\ENIAC\Microchip\TCPIP Stack\StackTsk.c
                    caddr   0x000f43       data     static D:\fei\MPLABXProjects\ENIAC\NodeUDPServer.c
                 caddrlen   0x000838       data     static D:\fei\MPLABXProjects\ENIAC\NodeUDPServer.c
      calculateDXIDTState   0x0007e5       data     static D:\fei\MPLABXProjects\ENIAC\Node.c
         calculateXIState   0x0007e2       data     static D:\fei\MPLABXProjects\ENIAC\Node.c
checkIfFluidIsLeavingState   0x0007e3       data     static D:\fei\MPLABXProjects\ENIAC\Node.c
                    close   0x00084a       data     static D:\fei\MPLABXProjects\ENIAC\NodeTCPClient1.c
                    close   0x000549       data     static D:\fei\MPLABXProjects\ENIAC\NodeUDPClient.c
              closeServer   0x000836       data     static D:\fei\MPLABXProjects\ENIAC\NodeUDPServer.c
                curr_byte   0x000811       data     static E:\c18v3.46\pic18-lt\cxx-framework\src\traditional\startup\c018iz.c
               curr_entry   0x000813       data     static E:\c18v3.46\pic18-lt\cxx-framework\src\traditional\startup\c018iz.c
                 data_ptr   0x000815       data     static E:\c18v3.46\pic18-lt\cxx-framework\src\traditional\startup\c018iz.c
               descriptor   0x000e1a       data     extern D:\fei\MPLABXProjects\ENIAC\Node.c
                   detadx   0x000e78       data     static D:\fei\MPLABXProjects\ENIAC\Node.c
                   detady   0x000e7c       data     static D:\fei\MPLABXProjects\ENIAC\Node.c
                   digits   0x000825       data     static D:\fei\MPLABXProjects\ENIAC\7segment.c
          dwInternalTicks   0x000832       data     static D:\fei\MPLABXProjects\ENIAC\Microchip\TCPIP Stack\Tick.c
           dwLFSRRandSeed   0x000842       data     static D:\fei\MPLABXProjects\ENIAC\Microchip\TCPIP Stack\Helpers.c
                    dxidt   0x000130       data     static D:\fei\MPLABXProjects\ENIAC\Node.c
                     dzdt   0x0001f8       data     static D:\fei\MPLABXProjects\ENIAC\Node.c
                     dzdx   0x000e70       data     static D:\fei\MPLABXProjects\ENIAC\Node.c
                     dzdy   0x000e74       data     static D:\fei\MPLABXProjects\ENIAC\Node.c
                  eastern   0x000e0a       data     static D:\fei\MPLABXProjects\ENIAC\Node.c
           eniacNodeState   0x0007de       data     static D:\fei\MPLABXProjects\ENIAC\Node.c
                    errno   0x0006fe       data     extern E:\c18v3.46\pic18-lt\cxx-framework\src\traditional\stdclib\errno.c
                      eta   0x000194       data     static D:\fei\MPLABXProjects\ENIAC\Node.c
    extrapolateDXIDTState   0x0007eb       data     static D:\fei\MPLABXProjects\ENIAC\Node.c
       extrapolateXIState   0x0007e4       data     static D:\fei\MPLABXProjects\ENIAC\Node.c
                        f   0x000e12       data     static D:\fei\MPLABXProjects\ENIAC\Node.c
                    flags   0x00081c       data     static D:\fei\MPLABXProjects\ENIAC\Microchip\TCPIP Stack\ETH97J60.c
             fluidLeaving   0x000e0d       data     static D:\fei\MPLABXProjects\ENIAC\Node.c
          gAutoPortNumber   0x000854       data     static D:\fei\MPLABXProjects\ENIAC\Microchip\TCPIP Stack\BerkeleyAPI.c
                 gridSize   0x000e00       data     extern D:\fei\MPLABXProjects\ENIAC\Node.c
                        h   0x000e16       data     static D:\fei\MPLABXProjects\ENIAC\Node.c
              hCurrentTCP   0x000850       data     static D:\fei\MPLABXProjects\ENIAC\Microchip\TCPIP Stack\TCP.c
                 hLastTCB   0x000851       data     static D:\fei\MPLABXProjects\ENIAC\Microchip\TCPIP Stack\TCP.c
                        i   0x000829       data     static D:\fei\MPLABXProjects\ENIAC\7segment.c
            initNodeState   0x0007e0       data     static D:\fei\MPLABXProjects\ENIAC\Node.c
                    inner   0x000e08       data     static D:\fei\MPLABXProjects\ENIAC\Node.c
                  it_step   0x0007e6       data     static D:\fei\MPLABXProjects\ENIAC\Node.c
                        m   0x000e0e       data     static D:\fei\MPLABXProjects\ENIAC\Node.c
        mainServerAddress   0x0007d4       data     extern D:\fei\MPLABXProjects\ENIAC\Node.c
           mainServerPort   0x0007d8       data     extern D:\fei\MPLABXProjects\ENIAC\Node.c
      neighborDescriptors   0x000e28       data     extern D:\fei\MPLABXProjects\ENIAC\Node.c
 neighborDescriptorsState   0x0007e1       data     static D:\fei\MPLABXProjects\ENIAC\Node.c
        neighborValuePtrs   0x0005c1       data     static D:\fei\MPLABXProjects\ENIAC\NodeUDPClient.c
           neighborValues   0x000e60       data     static D:\fei\MPLABXProjects\ENIAC\Node.c
        nodeDescriptorPtr   0x000f3c       data     static D:\fei\MPLABXProjects\ENIAC\NodeUDPServer.c
      nodeTCPClient0State   0x000859       data     static D:\fei\MPLABXProjects\ENIAC\NodeTCPClient0.c
      nodeTCPClient1State   0x00084b       data     static D:\fei\MPLABXProjects\ENIAC\NodeTCPClient1.c
      nodeUDPClientStates   0x00083a       data     static D:\fei\MPLABXProjects\ENIAC\NodeUDPClient.c
       nodeUDPServerState   0x000837       data     static D:\fei\MPLABXProjects\ENIAC\NodeUDPServer.c
                 northern   0x000e09       data     static D:\fei\MPLABXProjects\ENIAC\Node.c
     poissonEquationState   0x0007ea       data     static D:\fei\MPLABXProjects\ENIAC\Node.c
                     prom   0x00080e       data     static E:\c18v3.46\pic18-lt\cxx-framework\src\traditional\startup\c018iz.c
           providerSocket   0x000f3e       data     static D:\fei\MPLABXProjects\ENIAC\NodeUDPServer.c
            receiveBuffer   0x000f57       data     static D:\fei\MPLABXProjects\ENIAC\NodeUDPServer.c
           receiveBuffers   0x0005b1       data     static D:\fei\MPLABXProjects\ENIAC\NodeUDPClient.c
               remoteNode   0x0005f6       data     extern D:\fei\MPLABXProjects\ENIAC\Microchip\TCPIP Stack\StackTsk.c
            requestParams   0x000800       data     static D:\fei\MPLABXProjects\ENIAC\NodeTCPClient0.c
            requestParams   0x000846       data     static D:\fei\MPLABXProjects\ENIAC\NodeTCPClient1.c
            requestParams   0x000521       data     static D:\fei\MPLABXProjects\ENIAC\NodeUDPClient.c
          requesterSocket   0x00080d       data     static D:\fei\MPLABXProjects\ENIAC\NodeTCPClient0.c
          requesterSocket   0x000848       data     static D:\fei\MPLABXProjects\ENIAC\NodeTCPClient1.c
         requesterSockets   0x00054d       data     static D:\fei\MPLABXProjects\ENIAC\NodeUDPClient.c
                    saddr   0x000551       data     static D:\fei\MPLABXProjects\ENIAC\NodeUDPClient.c
               sendBuffer   0x000f3f       data     static D:\fei\MPLABXProjects\ENIAC\NodeUDPServer.c
              sendBuffers   0x000591       data     static D:\fei\MPLABXProjects\ENIAC\NodeUDPClient.c
                    smARP   0x00085c       data     static D:\fei\MPLABXProjects\ENIAC\Microchip\TCPIP Stack\ARP.c
                  smStack   0x0005f5       data     static D:\fei\MPLABXProjects\ENIAC\Microchip\TCPIP Stack\StackTsk.c
                 southern   0x000e0b       data     static D:\fei\MPLABXProjects\ENIAC\Node.c
                    start   0x000545       data     static D:\fei\MPLABXProjects\ENIAC\NodeUDPClient.c
                    start   0x000849       data     static D:\fei\MPLABXProjects\ENIAC\NodeTCPClient1.c
                    start   0x00080c       data     static D:\fei\MPLABXProjects\ENIAC\NodeTCPClient0.c
                startTick   0x00082e       data     static D:\fei\MPLABXProjects\ENIAC\Microchip\TCPIP Stack\BerkeleyAPI.c
      startUDPServerState   0x0007df       data     static D:\fei\MPLABXProjects\ENIAC\Node.c
                     step   0x0007da       data     static D:\fei\MPLABXProjects\ENIAC\Node.c
              tblptru_sav   0x000f5f       data     static E:\c18v3.46\pic18-lt\cxx-framework\src\traditional\stdclib\mcpyp2r.asm
                    timer   0x000f53       data     static D:\fei\MPLABXProjects\ENIAC\NodeUDPServer.c
                   timers   0x0005c9       data     static D:\fei\MPLABXProjects\ENIAC\NodeUDPClient.c
                 toRotate   0x00082a       data     extern D:\fei\MPLABXProjects\ENIAC\Microchip\TCPIP Stack\Helpers.c
             vTickReading   0x00081f       data     static D:\fei\MPLABXProjects\ENIAC\Microchip\TCPIP Stack\Tick.c
               wGetOffset   0x0006a8       data     static D:\fei\MPLABXProjects\ENIAC\Microchip\TCPIP Stack\UDP.c
               wPutOffset   0x0006a6       data     static D:\fei\MPLABXProjects\ENIAC\Microchip\TCPIP Stack\UDP.c
              wTXWatchdog   0x00081d       data     static D:\fei\MPLABXProjects\ENIAC\Microchip\TCPIP Stack\ETH97J60.c
                  western   0x000e0c       data     static D:\fei\MPLABXProjects\ENIAC\Node.c
                       xi   0x0000c8       data     static D:\fei\MPLABXProjects\ENIAC\Node.c
                        z   0x000060       data     static D:\fei\MPLABXProjects\ENIAC\Node.c



                              Symbols - Sorted by Address
                     Name    Address   Location    Storage File                     
                ---------  ---------  ---------  --------- ---------                
                   _entry   0x000000    program     extern E:\c18v3.46\pic18-lt\cxx-framework\src\traditional\startup\c018iz.c
       ___return_lbl00000   0x000004    program     static                          
                   __init   0x000006    program     extern E:\c18v3.46\pic18-lt\cxx-framework\src\traditional\stdclib\__init.c
               HighVector   0x000008    program     extern D:\fei\MPLABXProjects\ENIAC\Main.c
       ___return_lbl00005   0x00000c    program     static                          
                  BusyADC   0x00000e    program     extern E:\c18v3.46\pic18-lt\cxx-framework\src\pmc_common\ADC\adcbusy.c
                LowVector   0x000018    program     extern D:\fei\MPLABXProjects\ENIAC\Main.c
       ___return_lbl00004   0x00001c    program     static                          
              SyncTCBStub   0x0000e0    program     static D:\fei\MPLABXProjects\ENIAC\Microchip\TCPIP Stack\TCP.c
                  SyncTCB   0x00017e    program     static D:\fei\MPLABXProjects\ENIAC\Microchip\TCPIP Stack\TCP.c
                  TCPInit   0x000236    program     extern D:\fei\MPLABXProjects\ENIAC\Microchip\TCPIP Stack\TCP.c
                  TCPOpen   0x000540    program     extern D:\fei\MPLABXProjects\ENIAC\Microchip\TCPIP Stack\TCP.c
              TCPWasReset   0x00070e    program     extern D:\fei\MPLABXProjects\ENIAC\Microchip\TCPIP Stack\TCP.c
           TCPIsConnected   0x00074e    program     extern D:\fei\MPLABXProjects\ENIAC\Microchip\TCPIP Stack\TCP.c
            TCPDisconnect   0x00078e    program     extern D:\fei\MPLABXProjects\ENIAC\Microchip\TCPIP Stack\TCP.c
                 TCPClose   0x00086e    program     extern D:\fei\MPLABXProjects\ENIAC\Microchip\TCPIP Stack\TCP.c
         TCPGetRemoteInfo   0x0008aa    program     extern D:\fei\MPLABXProjects\ENIAC\Microchip\TCPIP Stack\TCP.c
                 TCPFlush   0x00091a    program     extern D:\fei\MPLABXProjects\ENIAC\Microchip\TCPIP Stack\TCP.c
            TCPIsPutReady   0x00096a    program     extern D:\fei\MPLABXProjects\ENIAC\Microchip\TCPIP Stack\TCP.c
                   TCPPut   0x000a16    program     extern D:\fei\MPLABXProjects\ENIAC\Microchip\TCPIP Stack\TCP.c
              TCPPutArray   0x000b6a    program     extern D:\fei\MPLABXProjects\ENIAC\Microchip\TCPIP Stack\TCP.c
           TCPPutROMArray   0x000dc8    program     extern D:\fei\MPLABXProjects\ENIAC\Microchip\TCPIP Stack\TCP.c
             TCPPutString   0x001030    program     extern D:\fei\MPLABXProjects\ENIAC\Microchip\TCPIP Stack\TCP.c
          TCPPutROMString   0x0010b6    program     extern D:\fei\MPLABXProjects\ENIAC\Microchip\TCPIP Stack\TCP.c
         TCPGetTxFIFOFull   0x00114a    program     extern D:\fei\MPLABXProjects\ENIAC\Microchip\TCPIP Stack\TCP.c
               TCPDiscard   0x0011e4    program     extern D:\fei\MPLABXProjects\ENIAC\Microchip\TCPIP Stack\TCP.c
            TCPIsGetReady   0x001230    program     extern D:\fei\MPLABXProjects\ENIAC\Microchip\TCPIP Stack\TCP.c
                   TCPGet   0x0012be    program     extern D:\fei\MPLABXProjects\ENIAC\Microchip\TCPIP Stack\TCP.c
              TCPGetArray   0x0013ae    program     extern D:\fei\MPLABXProjects\ENIAC\Microchip\TCPIP Stack\TCP.c
         TCPGetRxFIFOFree   0x0015fa    program     extern D:\fei\MPLABXProjects\ENIAC\Microchip\TCPIP Stack\TCP.c
             TCPPeekArray   0x00168c    program     extern D:\fei\MPLABXProjects\ENIAC\Microchip\TCPIP Stack\TCP.c
                  TCPPeek   0x0018d0    program     extern D:\fei\MPLABXProjects\ENIAC\Microchip\TCPIP Stack\TCP.c
           TCPFindArrayEx   0x001912    program     extern D:\fei\MPLABXProjects\ENIAC\Microchip\TCPIP Stack\TCP.c
        TCPFindROMArrayEx   0x001f40    program     extern D:\fei\MPLABXProjects\ENIAC\Microchip\TCPIP Stack\TCP.c
                TCPFindEx   0x0025ce    program     extern D:\fei\MPLABXProjects\ENIAC\Microchip\TCPIP Stack\TCP.c
                  TCPTick   0x002622    program     extern D:\fei\MPLABXProjects\ENIAC\Microchip\TCPIP Stack\TCP.c
               TCPProcess   0x002ec6    program     extern D:\fei\MPLABXProjects\ENIAC\Microchip\TCPIP Stack\TCP.c
                  SendTCP   0x0030d4    program     static D:\fei\MPLABXProjects\ENIAC\Microchip\TCPIP Stack\TCP.c
       FindMatchingSocket   0x0038aa    program     static D:\fei\MPLABXProjects\ENIAC\Microchip\TCPIP Stack\TCP.c
            SwapTCPHeader   0x003ec8    program     static D:\fei\MPLABXProjects\ENIAC\Microchip\TCPIP Stack\TCP.c
              CloseSocket   0x0040f8    program     static D:\fei\MPLABXProjects\ENIAC\Microchip\TCPIP Stack\TCP.c
      GetMaxSegSizeOption   0x004182    program     static D:\fei\MPLABXProjects\ENIAC\Microchip\TCPIP Stack\TCP.c
             HandleTCPSeg   0x0042f2    program     static D:\fei\MPLABXProjects\ENIAC\Microchip\TCPIP Stack\TCP.c
             __tmplbl_159   0x0056da    program     static                          
             __tmplbl_160   0x0056da    program     static                          
             __tmplbl_157   0x0056da    program     static                          
             __tmplbl_170   0x0056da    program     static                          
             __tmplbl_171   0x0056da    program     static                          
             __tmplbl_172   0x0056da    program     static                          
             __tmplbl_174   0x0056da    program     static                          
             __tmplbl_175   0x0056da    program     static                          
             __tmplbl_155   0x0056da    program     static                          
             __tmplbl_154   0x0056da    program     static                          
             __tmplbl_146   0x0056da    program     static                          
             __tmplbl_143   0x0056da    program     static                          
             __tmplbl_141   0x0056da    program     static                          
             __tmplbl_139   0x0056da    program     static                          
             __tmplbl_137   0x0056da    program     static                          
             __tmplbl_135   0x0056da    program     static                          
             __tmplbl_177   0x0056da    program     static                          
             __tmplbl_176   0x0056da    program     static                          
        TCPAdjustFIFOSize   0x0056ee    program     extern D:\fei\MPLABXProjects\ENIAC\Microchip\TCPIP Stack\TCP.c
               TCPRAMCopy   0x005a2e    program     static D:\fei\MPLABXProjects\ENIAC\Microchip\TCPIP Stack\TCP.c
            TCPRAMCopyROM   0x005b78    program     static D:\fei\MPLABXProjects\ENIAC\Microchip\TCPIP Stack\TCP.c
                EniacNode   0x005cfc    program     extern D:\fei\MPLABXProjects\ENIAC\Node.c
              __tmplbl_34   0x006544    program     static                          
              __tmplbl_33   0x00654e    program     static                          
              __tmplbl_39   0x006552    program     static                          
           startUDPServer   0x00656e    program     static D:\fei\MPLABXProjects\ENIAC\Node.c
                 initNode   0x0065ac    program     static D:\fei\MPLABXProjects\ENIAC\Node.c
              calculateXI   0x006bac    program     static D:\fei\MPLABXProjects\ENIAC\Node.c
    checkIfFluidIsLeaving   0x006e9a    program     static D:\fei\MPLABXProjects\ENIAC\Node.c
            extrapolateXI   0x007142    program     static D:\fei\MPLABXProjects\ENIAC\Node.c
           calculateDXIDT   0x007552    program     static D:\fei\MPLABXProjects\ENIAC\Node.c
     solvePoissonEquation   0x0078e4    program     static D:\fei\MPLABXProjects\ENIAC\Node.c
         extrapolateDXIDT   0x007bce    program     static D:\fei\MPLABXProjects\ENIAC\Node.c
                 getValue   0x007fe2    program     extern D:\fei\MPLABXProjects\ENIAC\Node.c
                 setValue   0x008322    program     static D:\fei\MPLABXProjects\ENIAC\Node.c
    getNeighborsValuesUDP   0x0084ea    program     static D:\fei\MPLABXProjects\ENIAC\Node.c
neighborsValuesUDPFinished   0x00860c    program     static D:\fei\MPLABXProjects\ENIAC\Node.c
       BerkeleySocketInit   0x0086ba    program     extern D:\fei\MPLABXProjects\ENIAC\Microchip\TCPIP Stack\BerkeleyAPI.c
                   socket   0x008754    program     extern D:\fei\MPLABXProjects\ENIAC\Microchip\TCPIP Stack\BerkeleyAPI.c
                     bind   0x0088da    program     extern D:\fei\MPLABXProjects\ENIAC\Microchip\TCPIP Stack\BerkeleyAPI.c
                   listen   0x008a7e    program     extern D:\fei\MPLABXProjects\ENIAC\Microchip\TCPIP Stack\BerkeleyAPI.c
                   accept   0x008d82    program     extern D:\fei\MPLABXProjects\ENIAC\Microchip\TCPIP Stack\BerkeleyAPI.c
                  connect   0x0090fa    program     extern D:\fei\MPLABXProjects\ENIAC\Microchip\TCPIP Stack\BerkeleyAPI.c
                     send   0x0094a6    program     extern D:\fei\MPLABXProjects\ENIAC\Microchip\TCPIP Stack\BerkeleyAPI.c
                   sendto   0x0094f6    program     extern D:\fei\MPLABXProjects\ENIAC\Microchip\TCPIP Stack\BerkeleyAPI.c
                     recv   0x00998e    program     extern D:\fei\MPLABXProjects\ENIAC\Microchip\TCPIP Stack\BerkeleyAPI.c
                 recvfrom   0x009ae4    program     extern D:\fei\MPLABXProjects\ENIAC\Microchip\TCPIP Stack\BerkeleyAPI.c
              gethostname   0x009dde    program     extern D:\fei\MPLABXProjects\ENIAC\Microchip\TCPIP Stack\BerkeleyAPI.c
              closesocket   0x009ee8    program     extern D:\fei\MPLABXProjects\ENIAC\Microchip\TCPIP Stack\BerkeleyAPI.c
HandlePossibleTCPDisconnection   0x00a204    program     static D:\fei\MPLABXProjects\ENIAC\Microchip\TCPIP Stack\BerkeleyAPI.c
                  UDPInit   0x00a37e    program     extern D:\fei\MPLABXProjects\ENIAC\Microchip\TCPIP Stack\UDP.c
                UDPOpenEx   0x00a3aa    program     extern D:\fei\MPLABXProjects\ENIAC\Microchip\TCPIP Stack\UDP.c
                  UDPTask   0x00a618    program     extern D:\fei\MPLABXProjects\ENIAC\Microchip\TCPIP Stack\UDP.c
              UDPIsOpened   0x00a8c0    program     extern D:\fei\MPLABXProjects\ENIAC\Microchip\TCPIP Stack\UDP.c
                 UDPClose   0x00a8fc    program     extern D:\fei\MPLABXProjects\ENIAC\Microchip\TCPIP Stack\UDP.c
           UDPSetTxBuffer   0x00a980    program     extern D:\fei\MPLABXProjects\ENIAC\Microchip\TCPIP Stack\UDP.c
           UDPSetRxBuffer   0x00a9ee    program     extern D:\fei\MPLABXProjects\ENIAC\Microchip\TCPIP Stack\UDP.c
            UDPIsPutReady   0x00aa32    program     extern D:\fei\MPLABXProjects\ENIAC\Microchip\TCPIP Stack\UDP.c
                   UDPPut   0x00aab2    program     extern D:\fei\MPLABXProjects\ENIAC\Microchip\TCPIP Stack\UDP.c
              UDPPutArray   0x00ab0e    program     extern D:\fei\MPLABXProjects\ENIAC\Microchip\TCPIP Stack\UDP.c
           UDPPutROMArray   0x00abfa    program     extern D:\fei\MPLABXProjects\ENIAC\Microchip\TCPIP Stack\UDP.c
             UDPPutString   0x00acec    program     extern D:\fei\MPLABXProjects\ENIAC\Microchip\TCPIP Stack\UDP.c
          UDPPutROMString   0x00ad6c    program     extern D:\fei\MPLABXProjects\ENIAC\Microchip\TCPIP Stack\UDP.c
                 UDPFlush   0x00adfa    program     extern D:\fei\MPLABXProjects\ENIAC\Microchip\TCPIP Stack\UDP.c
            UDPIsGetReady   0x00b096    program     extern D:\fei\MPLABXProjects\ENIAC\Microchip\TCPIP Stack\UDP.c
                   UDPGet   0x00b0e6    program     extern D:\fei\MPLABXProjects\ENIAC\Microchip\TCPIP Stack\UDP.c
              UDPGetArray   0x00b132    program     extern D:\fei\MPLABXProjects\ENIAC\Microchip\TCPIP Stack\UDP.c
               UDPDiscard   0x00b210    program     extern D:\fei\MPLABXProjects\ENIAC\Microchip\TCPIP Stack\UDP.c
               UDPProcess   0x00b22a    program     extern D:\fei\MPLABXProjects\ENIAC\Microchip\TCPIP Stack\UDP.c
       FindMatchingSocket   0x00b45a    program     static D:\fei\MPLABXProjects\ENIAC\Microchip\TCPIP Stack\UDP.c
             LFSRSeedRand   0x00b646    program     extern D:\fei\MPLABXProjects\ENIAC\Microchip\TCPIP Stack\Helpers.c
                 LFSRRand   0x00b6fe    program     extern D:\fei\MPLABXProjects\ENIAC\Microchip\TCPIP Stack\Helpers.c
      GenerateRandomDWORD   0x00b792    program     extern D:\fei\MPLABXProjects\ENIAC\Microchip\TCPIP Stack\Helpers.c
        ___while_lbl00010   0x00b800    program     static                          
        ___while_lbl00012   0x00b808    program     static                          
        ___while_lbl00013   0x00b80c    program     static                          
               __tmplbl_0   0x00b86a    program     static                          
           ___if_lbl00014   0x00b8a6    program     static                          
           ___if_lbl00015   0x00b8c4    program     static                          
           ___if_lbl00016   0x00b956    program     static                          
           ___if_lbl00017   0x00b95c    program     static                          
        ___while_lbl00011   0x00b95e    program     static                          
       ___return_lbl00009   0x00b9a6    program     static                          
        StringToIPAddress   0x00b9ba    program     extern D:\fei\MPLABXProjects\ENIAC\Microchip\TCPIP Stack\Helpers.c
     ROMStringToIPAddress   0x00bc0e    program     extern D:\fei\MPLABXProjects\ENIAC\Microchip\TCPIP Stack\Helpers.c
                    uitoa   0x00be72    program     extern D:\fei\MPLABXProjects\ENIAC\Microchip\TCPIP Stack\Helpers.c
                  hexatob   0x00bfbe    program     extern D:\fei\MPLABXProjects\ENIAC\Microchip\TCPIP Stack\Helpers.c
             btohexa_high   0x00c07a    program     extern D:\fei\MPLABXProjects\ENIAC\Microchip\TCPIP Stack\Helpers.c
              btohexa_low   0x00c0b0    program     extern D:\fei\MPLABXProjects\ENIAC\Microchip\TCPIP Stack\Helpers.c
           stricmppgm2ram   0x00c0e4    program     extern D:\fei\MPLABXProjects\ENIAC\Microchip\TCPIP Stack\Helpers.c
                    swaps   0x00c1fa    program     extern D:\fei\MPLABXProjects\ENIAC\Microchip\TCPIP Stack\Helpers.c
                    swapl   0x00c24e    program     extern D:\fei\MPLABXProjects\ENIAC\Microchip\TCPIP Stack\Helpers.c
           CalcIPChecksum   0x00c2f4    program     extern D:\fei\MPLABXProjects\ENIAC\Microchip\TCPIP Stack\Helpers.c
          leftRotateDWORD   0x00c46a    program     extern D:\fei\MPLABXProjects\ENIAC\Microchip\TCPIP Stack\Helpers.c
          ___for_lbl00102   0x00c494    program     static                          
          ___for_lbl00100   0x00c4b2    program     static                          
          ___for_lbl00101   0x00c4b8    program     static                          
          ___for_lbl00105   0x00c4b8    program     static                          
          ___for_lbl00103   0x00c4cc    program     static                          
          ___for_lbl00104   0x00c4d0    program     static                          
       ___return_lbl00099   0x00c4e2    program     static                          
        FormatNetBIOSName   0x00c4f6    program     extern D:\fei\MPLABXProjects\ENIAC\Microchip\TCPIP Stack\Helpers.c
                  strnchr   0x00c588    program     extern D:\fei\MPLABXProjects\ENIAC\Microchip\TCPIP Stack\Helpers.c
                  MACInit   0x00c600    program     extern D:\fei\MPLABXProjects\ENIAC\Microchip\TCPIP Stack\ETH97J60.c
        ___while_lbl00001   0x00c612    program     static                          
        ___while_lbl00002   0x00c618    program     static                          
       ___return_lbl00000   0x00c702    program     static                          
              MACIsLinked   0x00c70c    program     extern D:\fei\MPLABXProjects\ENIAC\Microchip\TCPIP Stack\ETH97J60.c
             MACIsTxReady   0x00c72c    program     extern D:\fei\MPLABXProjects\ENIAC\Microchip\TCPIP Stack\ETH97J60.c
             MACDiscardRx   0x00c766    program     extern D:\fei\MPLABXProjects\ENIAC\Microchip\TCPIP Stack\ETH97J60.c
         MACGetFreeRxSize   0x00c7f6    program     extern D:\fei\MPLABXProjects\ENIAC\Microchip\TCPIP Stack\ETH97J60.c
             MACGetHeader   0x00c8ee    program     extern D:\fei\MPLABXProjects\ENIAC\Microchip\TCPIP Stack\ETH97J60.c
           ___if_lbl00020   0x00c904    program     static                          
           ___if_lbl00021   0x00c914    program     static                          
              __tmplbl_11   0x00c97c    program     static                          
              __tmplbl_10   0x00c97e    program     static                          
               __tmplbl_9   0x00c98c    program     static                          
               __tmplbl_8   0x00c9a2    program     static                          
               __tmplbl_7   0x00c9b6    program     static                          
               __tmplbl_6   0x00c9cc    program     static                          
               __tmplbl_5   0x00c9e0    program     static                          
           ___if_lbl00027   0x00c9e2    program     static                          
              __tmplbl_13   0x00ca3a    program     static                          
              __tmplbl_14   0x00ca40    program     static                          
              __tmplbl_12   0x00ca48    program     static                          
           ___if_lbl00030   0x00ca5a    program     static                          
       ___return_lbl00019   0x00ca62    program     static                          
             MACPutHeader   0x00ca7a    program     extern D:\fei\MPLABXProjects\ENIAC\Microchip\TCPIP Stack\ETH97J60.c
                 MACFlush   0x00cb02    program     extern D:\fei\MPLABXProjects\ENIAC\Microchip\TCPIP Stack\ETH97J60.c
        MACSetReadPtrInRx   0x00cb38    program     extern D:\fei\MPLABXProjects\ENIAC\Microchip\TCPIP Stack\ETH97J60.c
           MACSetWritePtr   0x00cbb8    program     extern D:\fei\MPLABXProjects\ENIAC\Microchip\TCPIP Stack\ETH97J60.c
            MACSetReadPtr   0x00cbfe    program     extern D:\fei\MPLABXProjects\ENIAC\Microchip\TCPIP Stack\ETH97J60.c
        MACCalcRxChecksum   0x00cc44    program     extern D:\fei\MPLABXProjects\ENIAC\Microchip\TCPIP Stack\ETH97J60.c
     CalcIPBufferChecksum   0x00cd06    program     extern D:\fei\MPLABXProjects\ENIAC\Microchip\TCPIP Stack\ETH97J60.c
          MACMemCopyAsync   0x00cf0a    program     extern D:\fei\MPLABXProjects\ENIAC\Microchip\TCPIP Stack\ETH97J60.c
         MACIsMemCopyDone   0x00d17a    program     extern D:\fei\MPLABXProjects\ENIAC\Microchip\TCPIP Stack\ETH97J60.c
                   MACGet   0x00d188    program     extern D:\fei\MPLABXProjects\ENIAC\Microchip\TCPIP Stack\ETH97J60.c
              MACGetArray   0x00d18e    program     extern D:\fei\MPLABXProjects\ENIAC\Microchip\TCPIP Stack\ETH97J60.c
                   MACPut   0x00d22e    program     extern D:\fei\MPLABXProjects\ENIAC\Microchip\TCPIP Stack\ETH97J60.c
       ___return_lbl00079   0x00d240    program     static                          
              MACPutArray   0x00d248    program     extern D:\fei\MPLABXProjects\ENIAC\Microchip\TCPIP Stack\ETH97J60.c
        ___while_lbl00081   0x00d250    program     static                          
       ___return_lbl00080   0x00d284    program     static                          
        ___while_lbl00082   0x00d284    program     static                          
           MACPutROMArray   0x00d28c    program     extern D:\fei\MPLABXProjects\ENIAC\Microchip\TCPIP Stack\ETH97J60.c
        ___while_lbl00084   0x00d294    program     static                          
        ___while_lbl00085   0x00d2da    program     static                          
       ___return_lbl00083   0x00d2da    program     static                          
               ReadPHYReg   0x00d2e2    program     extern D:\fei\MPLABXProjects\ENIAC\Microchip\TCPIP Stack\ETH97J60.c
        ___while_lbl00087   0x00d2fe    program     static                          
        ___while_lbl00088   0x00d304    program     static                          
       ___return_lbl00086   0x00d328    program     static                          
              WritePHYReg   0x00d33c    program     extern D:\fei\MPLABXProjects\ENIAC\Microchip\TCPIP Stack\ETH97J60.c
        ___while_lbl00090   0x00d370    program     static                          
       ___return_lbl00089   0x00d376    program     static                          
        ___while_lbl00091   0x00d376    program     static                          
             MACPowerDown   0x00d380    program     extern D:\fei\MPLABXProjects\ENIAC\Microchip\TCPIP Stack\ETH97J60.c
               MACPowerUp   0x00d392    program     extern D:\fei\MPLABXProjects\ENIAC\Microchip\TCPIP Stack\ETH97J60.c
                 DHCPInit   0x00d3a0    program     extern D:\fei\MPLABXProjects\ENIAC\Microchip\TCPIP Stack\DHCP.c
              DHCPDisable   0x00d3ee    program     extern D:\fei\MPLABXProjects\ENIAC\Microchip\TCPIP Stack\DHCP.c
               DHCPEnable   0x00d416    program     extern D:\fei\MPLABXProjects\ENIAC\Microchip\TCPIP Stack\DHCP.c
            DHCPIsEnabled   0x00d432    program     extern D:\fei\MPLABXProjects\ENIAC\Microchip\TCPIP Stack\DHCP.c
              DHCPIsBound   0x00d450    program     extern D:\fei\MPLABXProjects\ENIAC\Microchip\TCPIP Stack\DHCP.c
         DHCPStateChanged   0x00d468    program     extern D:\fei\MPLABXProjects\ENIAC\Microchip\TCPIP Stack\DHCP.c
     DHCPIsServerDetected   0x00d488    program     extern D:\fei\MPLABXProjects\ENIAC\Microchip\TCPIP Stack\DHCP.c
                 DHCPTask   0x00d4a4    program     extern D:\fei\MPLABXProjects\ENIAC\Microchip\TCPIP Stack\DHCP.c
             _DHCPReceive   0x00d91c    program     static D:\fei\MPLABXProjects\ENIAC\Microchip\TCPIP Stack\DHCP.c
                _DHCPSend   0x00dd60    program     static D:\fei\MPLABXProjects\ENIAC\Microchip\TCPIP Stack\DHCP.c
            NodeUDPClient   0x00e010    program     extern D:\fei\MPLABXProjects\ENIAC\NodeUDPClient.c
       startNodeUDPClient   0x00e7e4    program     extern D:\fei\MPLABXProjects\ENIAC\NodeUDPClient.c
    nodeUDPClientFinished   0x00e8fc    program     extern D:\fei\MPLABXProjects\ENIAC\NodeUDPClient.c
       closeNodeUDPClient   0x00e946    program     extern D:\fei\MPLABXProjects\ENIAC\NodeUDPClient.c
                 FLO0832U   0x00e96e    program     extern E:\c18v3.46\pic18-lt\cxx-framework\src\traditional\math\cast08FP.asm
                 FLO0832S   0x00e972    program     extern E:\c18v3.46\pic18-lt\cxx-framework\src\traditional\math\cast08FP.asm
                jI2F08Beg   0x00e97c    program     static E:\c18v3.46\pic18-lt\cxx-framework\src\traditional\math\cast08FP.asm
                 FLO1632U   0x00e990    program     extern E:\c18v3.46\pic18-lt\cxx-framework\src\traditional\math\cast16FP.asm
                 FLO1632S   0x00e994    program     extern E:\c18v3.46\pic18-lt\cxx-framework\src\traditional\math\cast16FP.asm
                jI2F16Beg   0x00e9a4    program     static E:\c18v3.46\pic18-lt\cxx-framework\src\traditional\math\cast16FP.asm
                 FLO3232U   0x00e9ba    program     extern E:\c18v3.46\pic18-lt\cxx-framework\src\traditional\math\cast32FP.asm
                 FLO3232S   0x00e9be    program     extern E:\c18v3.46\pic18-lt\cxx-framework\src\traditional\math\cast32FP.asm
                jI2F32Beg   0x00e9d6    program     static E:\c18v3.46\pic18-lt\cxx-framework\src\traditional\math\cast32FP.asm
                    FPS32   0x00e9f0    program     extern E:\c18v3.46\pic18-lt\cxx-framework\src\traditional\math\addFP.asm
                    FPA32   0x00e9f2    program     extern E:\c18v3.46\pic18-lt\cxx-framework\src\traditional\math\addFP.asm
                jBANotInf   0x00ea10    program     static E:\c18v3.46\pic18-lt\cxx-framework\src\traditional\math\addFP.asm
                 jANotInf   0x00ea1a    program     static E:\c18v3.46\pic18-lt\cxx-framework\src\traditional\math\addFP.asm
                 jBNotInf   0x00ea28    program     static E:\c18v3.46\pic18-lt\cxx-framework\src\traditional\math\addFP.asm
            jDifOrPosSign   0x00ea3c    program     static E:\c18v3.46\pic18-lt\cxx-framework\src\traditional\math\addFP.asm
             jNotBothZero   0x00ea40    program     static E:\c18v3.46\pic18-lt\cxx-framework\src\traditional\math\addFP.asm
                 jAltBexp   0x00ea6c    program     static E:\c18v3.46\pic18-lt\cxx-framework\src\traditional\math\addFP.asm
              jAandWsetup   0x00ea7e    program     static E:\c18v3.46\pic18-lt\cxx-framework\src\traditional\math\addFP.asm
                 jANotNeg   0x00eaae    program     static E:\c18v3.46\pic18-lt\cxx-framework\src\traditional\math\addFP.asm
                 jWNotNeg   0x00eac2    program     static E:\c18v3.46\pic18-lt\cxx-framework\src\traditional\math\addFP.asm
               jShiftLoop   0x00eac8    program     static E:\c18v3.46\pic18-lt\cxx-framework\src\traditional\math\addFP.asm
               jShiftDone   0x00ead6    program     static E:\c18v3.46\pic18-lt\cxx-framework\src\traditional\math\addFP.asm
                jSignDone   0x00eb06    program     static E:\c18v3.46\pic18-lt\cxx-framework\src\traditional\math\addFP.asm
               jFinalSign   0x00eb16    program     static E:\c18v3.46\pic18-lt\cxx-framework\src\traditional\math\addFP.asm
                    FPD32   0x00eb1e    program     extern E:\c18v3.46\pic18-lt\cxx-framework\src\traditional\math\divFP.asm
                 jANotInf   0x00eb3c    program     static E:\c18v3.46\pic18-lt\cxx-framework\src\traditional\math\divFP.asm
              jSignedZero   0x00eb46    program     static E:\c18v3.46\pic18-lt\cxx-framework\src\traditional\math\divFP.asm
                jANotZero   0x00eb50    program     static E:\c18v3.46\pic18-lt\cxx-framework\src\traditional\math\divFP.asm
                    jLoop   0x00eb78    program     static E:\c18v3.46\pic18-lt\cxx-framework\src\traditional\math\divFP.asm
                jNoAdjust   0x00eb9c    program     static E:\c18v3.46\pic18-lt\cxx-framework\src\traditional\math\divFP.asm
                    jNext   0x00eb9e    program     static E:\c18v3.46\pic18-lt\cxx-framework\src\traditional\math\divFP.asm
                    FPM32   0x00ebc4    program     extern E:\c18v3.46\pic18-lt\cxx-framework\src\traditional\math\mulFP.asm
                 jANotInf   0x00ebe2    program     static E:\c18v3.46\pic18-lt\cxx-framework\src\traditional\math\mulFP.asm
              jBothFinite   0x00ebf0    program     static E:\c18v3.46\pic18-lt\cxx-framework\src\traditional\math\mulFP.asm
                jHaveZero   0x00ebf8    program     static E:\c18v3.46\pic18-lt\cxx-framework\src\traditional\math\mulFP.asm
             jBothNotZero   0x00ebfc    program     static E:\c18v3.46\pic18-lt\cxx-framework\src\traditional\math\mulFP.asm
                 FXM1616U   0x00ec9e    program     extern E:\c18v3.46\pic18-lt\cxx-framework\src\traditional\math\fxm1616u.asm
                 FXM2424U   0x00ecda    program     extern E:\c18v3.46\pic18-lt\cxx-framework\src\traditional\math\fxm2424u.asm
                  INT3216   0x00ed6c    program     extern E:\c18v3.46\pic18-lt\cxx-framework\src\traditional\math\castFP16.asm
                     jMax   0x00ed7c    program     static E:\c18v3.46\pic18-lt\cxx-framework\src\traditional\math\castFP16.asm
                  jMaxPos   0x00ed80    program     static E:\c18v3.46\pic18-lt\cxx-framework\src\traditional\math\castFP16.asm
                  jMaxNeg   0x00ed8a    program     static E:\c18v3.46\pic18-lt\cxx-framework\src\traditional\math\castFP16.asm
                    jZero   0x00ed92    program     static E:\c18v3.46\pic18-lt\cxx-framework\src\traditional\math\castFP16.asm
                  jNotInf   0x00ed98    program     static E:\c18v3.46\pic18-lt\cxx-framework\src\traditional\math\castFP16.asm
                    jLoop   0x00eda8    program     static E:\c18v3.46\pic18-lt\cxx-framework\src\traditional\math\castFP16.asm
                jLoopExit   0x00edb8    program     static E:\c18v3.46\pic18-lt\cxx-framework\src\traditional\math\castFP16.asm
                    jExit   0x00edc8    program     static E:\c18v3.46\pic18-lt\cxx-framework\src\traditional\math\castFP16.asm
                  TAEQB32   0x00edca    program     extern E:\c18v3.46\pic18-lt\cxx-framework\src\traditional\math\eqFP.asm
                  TALTB32   0x00edd8    program     extern E:\c18v3.46\pic18-lt\cxx-framework\src\traditional\math\ltFP.asm
              __FpCompare   0x00edea    program     extern E:\c18v3.46\pic18-lt\cxx-framework\src\traditional\math\compFP.asm
             jBothNotZero   0x00ee08    program     static E:\c18v3.46\pic18-lt\cxx-framework\src\traditional\math\compFP.asm
                 jSignsEQ   0x00ee0c    program     static E:\c18v3.46\pic18-lt\cxx-framework\src\traditional\math\compFP.asm
                      jEQ   0x00ee24    program     static E:\c18v3.46\pic18-lt\cxx-framework\src\traditional\math\compFP.asm
                      jNE   0x00ee28    program     static E:\c18v3.46\pic18-lt\cxx-framework\src\traditional\math\compFP.asm
                    jExch   0x00ee30    program     static E:\c18v3.46\pic18-lt\cxx-framework\src\traditional\math\compFP.asm
                  jNoExch   0x00ee50    program     static E:\c18v3.46\pic18-lt\cxx-framework\src\traditional\math\compFP.asm
                   jFinal   0x00ee5a    program     static E:\c18v3.46\pic18-lt\cxx-framework\src\traditional\math\compFP.asm
                  jAisNeg   0x00ee66    program     static E:\c18v3.46\pic18-lt\cxx-framework\src\traditional\math\compFP.asm
                   jShift   0x00ee6c    program     static E:\c18v3.46\pic18-lt\cxx-framework\src\traditional\math\compFP.asm
                   jExpEQ   0x00ee76    program     static E:\c18v3.46\pic18-lt\cxx-framework\src\traditional\math\compFP.asm
                  jRotate   0x00ee82    program     static E:\c18v3.46\pic18-lt\cxx-framework\src\traditional\math\compFP.asm
            __FpReturnNaN   0x00ee94    program     extern E:\c18v3.46\pic18-lt\cxx-framework\src\traditional\math\packFP.asm
                 __FpExit   0x00eea0    program     extern E:\c18v3.46\pic18-lt\cxx-framework\src\traditional\math\packFP.asm
        __FpReturnSignInf   0x00eea2    program     extern E:\c18v3.46\pic18-lt\cxx-framework\src\traditional\math\packFP.asm
         __FpReturnNegInf   0x00eea6    program     extern E:\c18v3.46\pic18-lt\cxx-framework\src\traditional\math\packFP.asm
         __FpReturnPosInf   0x00eeac    program     extern E:\c18v3.46\pic18-lt\cxx-framework\src\traditional\math\packFP.asm
           jReturnPosInf0   0x00eeb0    program     static E:\c18v3.46\pic18-lt\cxx-framework\src\traditional\math\packFP.asm
               jZero1and2   0x00eeb4    program     static E:\c18v3.46\pic18-lt\cxx-framework\src\traditional\math\packFP.asm
       __FpReturnSignZero   0x00eeba    program     extern E:\c18v3.46\pic18-lt\cxx-framework\src\traditional\math\packFP.asm
        __FpReturnNegZero   0x00eebe    program     extern E:\c18v3.46\pic18-lt\cxx-framework\src\traditional\math\packFP.asm
        __FpReturnPosZero   0x00eec6    program     extern E:\c18v3.46\pic18-lt\cxx-framework\src\traditional\math\packFP.asm
                 __FpPack   0x00eecc    program     extern E:\c18v3.46\pic18-lt\cxx-framework\src\traditional\math\packFP.asm
                  jPkLoop   0x00eeda    program     static E:\c18v3.46\pic18-lt\cxx-framework\src\traditional\math\packFP.asm
             jPkShiftDone   0x00eef6    program     static E:\c18v3.46\pic18-lt\cxx-framework\src\traditional\math\packFP.asm
               jPkRoundIt   0x00ef0c    program     static E:\c18v3.46\pic18-lt\cxx-framework\src\traditional\math\packFP.asm
              __FpReturnW   0x00ef24    program     extern E:\c18v3.46\pic18-lt\cxx-framework\src\traditional\math\packFP.asm
             jPkRoundDone   0x00ef24    program     static E:\c18v3.46\pic18-lt\cxx-framework\src\traditional\math\packFP.asm
              __FpUnPackA   0x00ef44    program     extern E:\c18v3.46\pic18-lt\cxx-framework\src\traditional\math\UnpackFP.asm
                  jUnpkA1   0x00ef4e    program     static E:\c18v3.46\pic18-lt\cxx-framework\src\traditional\math\UnpackFP.asm
                 jUnpkANZ   0x00ef5c    program     static E:\c18v3.46\pic18-lt\cxx-framework\src\traditional\math\UnpackFP.asm
                  jUnpkA2   0x00ef66    program     static E:\c18v3.46\pic18-lt\cxx-framework\src\traditional\math\UnpackFP.asm
                 jUnpkNaN   0x00ef70    program     static E:\c18v3.46\pic18-lt\cxx-framework\src\traditional\math\UnpackFP.asm
              __FpUnPackB   0x00ef74    program     extern E:\c18v3.46\pic18-lt\cxx-framework\src\traditional\math\UnpackFP.asm
                  jUnpkB1   0x00ef7e    program     static E:\c18v3.46\pic18-lt\cxx-framework\src\traditional\math\UnpackFP.asm
                 jUnpkBNZ   0x00ef8c    program     static E:\c18v3.46\pic18-lt\cxx-framework\src\traditional\math\UnpackFP.asm
                  jUnpkB2   0x00ef96    program     static E:\c18v3.46\pic18-lt\cxx-framework\src\traditional\math\UnpackFP.asm
                  INT3232   0x00efa0    program     extern E:\c18v3.46\pic18-lt\cxx-framework\src\traditional\math\castFP32.asm
                     jMax   0x00efb0    program     static E:\c18v3.46\pic18-lt\cxx-framework\src\traditional\math\castFP32.asm
                  jMaxPos   0x00efb4    program     static E:\c18v3.46\pic18-lt\cxx-framework\src\traditional\math\castFP32.asm
                   jWr123   0x00efba    program     static E:\c18v3.46\pic18-lt\cxx-framework\src\traditional\math\castFP32.asm
                  jMaxNeg   0x00efc2    program     static E:\c18v3.46\pic18-lt\cxx-framework\src\traditional\math\castFP32.asm
                    jZero   0x00efc8    program     static E:\c18v3.46\pic18-lt\cxx-framework\src\traditional\math\castFP32.asm
                  jWrZ123   0x00efca    program     static E:\c18v3.46\pic18-lt\cxx-framework\src\traditional\math\castFP32.asm
                  jNotInf   0x00efce    program     static E:\c18v3.46\pic18-lt\cxx-framework\src\traditional\math\castFP32.asm
                    jLoop   0x00efe0    program     static E:\c18v3.46\pic18-lt\cxx-framework\src\traditional\math\castFP32.asm
                jLoopExit   0x00eff4    program     static E:\c18v3.46\pic18-lt\cxx-framework\src\traditional\math\castFP32.asm
                    jExit   0x00f00c    program     static E:\c18v3.46\pic18-lt\cxx-framework\src\traditional\math\castFP32.asm
                   ARPPut   0x00f00e    program     static D:\fei\MPLABXProjects\ENIAC\Microchip\TCPIP Stack\ARP.c
                  ARPInit   0x00f168    program     extern D:\fei\MPLABXProjects\ENIAC\Microchip\TCPIP Stack\ARP.c
               ARPProcess   0x00f180    program     extern D:\fei\MPLABXProjects\ENIAC\Microchip\TCPIP Stack\ARP.c
               ARPResolve   0x00f358    program     extern D:\fei\MPLABXProjects\ENIAC\Microchip\TCPIP Stack\ARP.c
            ARPIsResolved   0x00f432    program     extern D:\fei\MPLABXProjects\ENIAC\Microchip\TCPIP Stack\ARP.c
            SwapARPPacket   0x00f4f8    program     extern D:\fei\MPLABXProjects\ENIAC\Microchip\TCPIP Stack\ARP.c
                  _sincos   0x00f5d0    program     extern E:\c18v3.46\pic18-lt\cxx-framework\src\traditional\stdclib\sincos.c
                   __pa_0   0x00f9be    program     static E:\c18v3.46\pic18-lt\cxx-framework\src\traditional\stdclib\sincos.c
                   __pa_1   0x00f9d6    program     static E:\c18v3.46\pic18-lt\cxx-framework\src\traditional\stdclib\sincos.c
                   __pa_2   0x00f9f2    program     static E:\c18v3.46\pic18-lt\cxx-framework\src\traditional\stdclib\sincos.c
                   __pa_3   0x00fa0c    program     static E:\c18v3.46\pic18-lt\cxx-framework\src\traditional\stdclib\sincos.c
                   __pa_4   0x00fa16    program     static E:\c18v3.46\pic18-lt\cxx-framework\src\traditional\stdclib\sincos.c
                   __pa_5   0x00fa2c    program     static E:\c18v3.46\pic18-lt\cxx-framework\src\traditional\stdclib\sincos.c
                   __pa_6   0x00fa42    program     static E:\c18v3.46\pic18-lt\cxx-framework\src\traditional\stdclib\sincos.c
                   __pa_7   0x00fa54    program     static E:\c18v3.46\pic18-lt\cxx-framework\src\traditional\stdclib\sincos.c
                   __pa_8   0x00fa6e    program     static E:\c18v3.46\pic18-lt\cxx-framework\src\traditional\stdclib\sincos.c
                   __pa_9   0x00fa88    program     static E:\c18v3.46\pic18-lt\cxx-framework\src\traditional\stdclib\sincos.c
                  __pa_10   0x00fa92    program     static E:\c18v3.46\pic18-lt\cxx-framework\src\traditional\stdclib\sincos.c
                  __pa_11   0x00faa4    program     static E:\c18v3.46\pic18-lt\cxx-framework\src\traditional\stdclib\sincos.c
                  __pa_12   0x00fab2    program     static E:\c18v3.46\pic18-lt\cxx-framework\src\traditional\stdclib\sincos.c
                  __pa_13   0x00fab8    program     static E:\c18v3.46\pic18-lt\cxx-framework\src\traditional\stdclib\sincos.c
                  __pa_14   0x00fad2    program     static E:\c18v3.46\pic18-lt\cxx-framework\src\traditional\stdclib\sincos.c
                  __pa_15   0x00fae4    program     static E:\c18v3.46\pic18-lt\cxx-framework\src\traditional\stdclib\sincos.c
                  __pa_16   0x00fb08    program     static E:\c18v3.46\pic18-lt\cxx-framework\src\traditional\stdclib\sincos.c
                  __pa_17   0x00fb1a    program     static E:\c18v3.46\pic18-lt\cxx-framework\src\traditional\stdclib\sincos.c
                  __pa_18   0x00fb28    program     static E:\c18v3.46\pic18-lt\cxx-framework\src\traditional\stdclib\sincos.c
                  __pa_19   0x00fb3a    program     static E:\c18v3.46\pic18-lt\cxx-framework\src\traditional\stdclib\sincos.c
                  __pa_20   0x00fb4a    program     static E:\c18v3.46\pic18-lt\cxx-framework\src\traditional\stdclib\sincos.c
                  __pa_21   0x00fb56    program     static E:\c18v3.46\pic18-lt\cxx-framework\src\traditional\stdclib\sincos.c
                  __pa_22   0x00fb60    program     static E:\c18v3.46\pic18-lt\cxx-framework\src\traditional\stdclib\sincos.c
                  __pa_23   0x00fb68    program     static E:\c18v3.46\pic18-lt\cxx-framework\src\traditional\stdclib\sincos.c
                  __pa_24   0x00fb6e    program     static E:\c18v3.46\pic18-lt\cxx-framework\src\traditional\stdclib\sincos.c
      InitSensorMPL3115A2   0x00fb7a    program     extern D:\fei\MPLABXProjects\ENIAC\MPL3115A2.c
 ReadTemperatureMPL3115A2   0x00fb92    program     extern D:\fei\MPLABXProjects\ENIAC\MPL3115A2.c
    ReadPressureMPL3115A2   0x00fe7c    program     extern D:\fei\MPLABXProjects\ENIAC\MPL3115A2.c
              IPGetHeader   0x0100fa    program     extern D:\fei\MPLABXProjects\ENIAC\Microchip\TCPIP Stack\IP.c
              IPPutHeader   0x01026e    program     extern D:\fei\MPLABXProjects\ENIAC\Microchip\TCPIP Stack\IP.c
            IPSetRxBuffer   0x0103d2    program     extern D:\fei\MPLABXProjects\ENIAC\Microchip\TCPIP Stack\IP.c
             SwapIPHeader   0x01040c    program     static D:\fei\MPLABXProjects\ENIAC\Microchip\TCPIP Stack\IP.c
           NodeTCPClient0   0x0104f4    program     extern D:\fei\MPLABXProjects\ENIAC\NodeTCPClient0.c
      startNodeTCPClient0   0x010800    program     extern D:\fei\MPLABXProjects\ENIAC\NodeTCPClient0.c
   nodeTCPClient0Finished   0x01086a    program     extern D:\fei\MPLABXProjects\ENIAC\NodeTCPClient0.c
              I2CRegWrite   0x01087a    program     extern D:\fei\MPLABXProjects\ENIAC\I2CHelpers.c
             I2CRegWriteN   0x01090a    program     extern D:\fei\MPLABXProjects\ENIAC\I2CHelpers.c
               I2CRegRead   0x0109bc    program     extern D:\fei\MPLABXProjects\ENIAC\I2CHelpers.c
              I2CRegReadN   0x010a88    program     extern D:\fei\MPLABXProjects\ENIAC\I2CHelpers.c
               AnnounceIP   0x010bd6    program     extern D:\fei\MPLABXProjects\ENIAC\Microchip\TCPIP Stack\Announce.c
            DiscoveryTask   0x010cf8    program     extern D:\fei\MPLABXProjects\ENIAC\Microchip\TCPIP Stack\Announce.c
           NodeTCPClient1   0x010f24    program     extern D:\fei\MPLABXProjects\ENIAC\NodeTCPClient1.c
      startNodeTCPClient1   0x011232    program     extern D:\fei\MPLABXProjects\ENIAC\NodeTCPClient1.c
   nodeTCPClient1Finished   0x011260    program     extern D:\fei\MPLABXProjects\ENIAC\NodeTCPClient1.c
            NodeUDPServer   0x011270    program     extern D:\fei\MPLABXProjects\ENIAC\NodeUDPServer.c
       startNodeUDPServer   0x0114f2    program     extern D:\fei\MPLABXProjects\ENIAC\NodeUDPServer.c
   nodeUDPServerListening   0x011512    program     extern D:\fei\MPLABXProjects\ENIAC\NodeUDPServer.c
       closeNodeUDPServer   0x011532    program     extern D:\fei\MPLABXProjects\ENIAC\NodeUDPServer.c
                StackInit   0x01153a    program     extern D:\fei\MPLABXProjects\ENIAC\Microchip\TCPIP Stack\StackTsk.c
                StackTask   0x011594    program     extern D:\fei\MPLABXProjects\ENIAC\Microchip\TCPIP Stack\StackTsk.c
        StackApplications   0x0117da    program     extern D:\fei\MPLABXProjects\ENIAC\Microchip\TCPIP Stack\StackTsk.c
   ReadTemperatureMCP9808   0x0117de    program     extern D:\fei\MPLABXProjects\ENIAC\MCP9808.c
          InitializeBoard   0x011a58    program     extern D:\fei\MPLABXProjects\ENIAC\Setup.c
            InitAppConfig   0x011ab4    program     extern D:\fei\MPLABXProjects\ENIAC\Setup.c
                   memcpy   0x011c86    program     extern E:\c18v3.46\pic18-lt\cxx-framework\src\traditional\stdclib\memcpy.asm
                    jLoop   0x011cae    program     static E:\c18v3.46\pic18-lt\cxx-framework\src\traditional\stdclib\memcpy.asm
              _4jContinue   0x011cba    program     static E:\c18v3.46\pic18-lt\cxx-framework\src\traditional\stdclib\memcpy.asm
                   _5jEnd   0x011cc4    program     static E:\c18v3.46\pic18-lt\cxx-framework\src\traditional\stdclib\memcpy.asm
                     jEnd   0x011cca    program     static E:\c18v3.46\pic18-lt\cxx-framework\src\traditional\stdclib\memcpy.asm
            memcpypgm2ram   0x011cdc    program     extern E:\c18v3.46\pic18-lt\cxx-framework\src\traditional\stdclib\mcpyp2r.asm
                    jLoop   0x011d02    program     static E:\c18v3.46\pic18-lt\cxx-framework\src\traditional\stdclib\mcpyp2r.asm
              _3jContinue   0x011d0e    program     static E:\c18v3.46\pic18-lt\cxx-framework\src\traditional\stdclib\mcpyp2r.asm
                   _4jEnd   0x011d18    program     static E:\c18v3.46\pic18-lt\cxx-framework\src\traditional\stdclib\mcpyp2r.asm
                     jEnd   0x011d20    program     static E:\c18v3.46\pic18-lt\cxx-framework\src\traditional\stdclib\mcpyp2r.asm
                   memset   0x011d22    program     extern E:\c18v3.46\pic18-lt\cxx-framework\src\traditional\stdclib\memset.asm
                    jLoop   0x011d36    program     static E:\c18v3.46\pic18-lt\cxx-framework\src\traditional\stdclib\memset.asm
              _2jContinue   0x011d42    program     static E:\c18v3.46\pic18-lt\cxx-framework\src\traditional\stdclib\memset.asm
                   _3jEnd   0x011d4c    program     static E:\c18v3.46\pic18-lt\cxx-framework\src\traditional\stdclib\memset.asm
                     jEnd   0x011d54    program     static E:\c18v3.46\pic18-lt\cxx-framework\src\traditional\stdclib\memset.asm
                   strlen   0x011d56    program     extern E:\c18v3.46\pic18-lt\cxx-framework\src\traditional\stdclib\strlen.asm
                    jLoop   0x011d66    program     static E:\c18v3.46\pic18-lt\cxx-framework\src\traditional\stdclib\strlen.asm
                     jEnd   0x011d70    program     static E:\c18v3.46\pic18-lt\cxx-framework\src\traditional\stdclib\strlen.asm
                strlenpgm   0x011d72    program     extern E:\c18v3.46\pic18-lt\cxx-framework\src\traditional\stdclib\slenpgm.asm
                    jLoop   0x011d90    program     static E:\c18v3.46\pic18-lt\cxx-framework\src\traditional\stdclib\slenpgm.asm
                   _2jEnd   0x011da6    program     static E:\c18v3.46\pic18-lt\cxx-framework\src\traditional\stdclib\slenpgm.asm
                     jEnd   0x011da8    program     static E:\c18v3.46\pic18-lt\cxx-framework\src\traditional\stdclib\slenpgm.asm
                  strncat   0x011dbc    program     extern E:\c18v3.46\pic18-lt\cxx-framework\src\traditional\stdclib\strncat.asm
                jNullLoop   0x011de4    program     static E:\c18v3.46\pic18-lt\cxx-framework\src\traditional\stdclib\strncat.asm
                    jLoop   0x011dea    program     static E:\c18v3.46\pic18-lt\cxx-framework\src\traditional\stdclib\strncat.asm
              _4jContinue   0x011df6    program     static E:\c18v3.46\pic18-lt\cxx-framework\src\traditional\stdclib\strncat.asm
                   _5jEnd   0x011e00    program     static E:\c18v3.46\pic18-lt\cxx-framework\src\traditional\stdclib\strncat.asm
                    jTerm   0x011e0a    program     static E:\c18v3.46\pic18-lt\cxx-framework\src\traditional\stdclib\strncat.asm
                     jEnd   0x011e0c    program     static E:\c18v3.46\pic18-lt\cxx-framework\src\traditional\stdclib\strncat.asm
           strncatpgm2ram   0x011e1e    program     extern E:\c18v3.46\pic18-lt\cxx-framework\src\traditional\stdclib\sncatp2r.asm
                jNullLoop   0x011e44    program     static E:\c18v3.46\pic18-lt\cxx-framework\src\traditional\stdclib\sncatp2r.asm
                    jLoop   0x011e4a    program     static E:\c18v3.46\pic18-lt\cxx-framework\src\traditional\stdclib\sncatp2r.asm
              _3jContinue   0x011e56    program     static E:\c18v3.46\pic18-lt\cxx-framework\src\traditional\stdclib\sncatp2r.asm
                   _4jEnd   0x011e60    program     static E:\c18v3.46\pic18-lt\cxx-framework\src\traditional\stdclib\sncatp2r.asm
                     jEnd   0x011e6a    program     static E:\c18v3.46\pic18-lt\cxx-framework\src\traditional\stdclib\sncatp2r.asm
                   strupr   0x011e6c    program     extern E:\c18v3.46\pic18-lt\cxx-framework\src\traditional\stdclib\strupr.asm
                    jLoop   0x011e80    program     static E:\c18v3.46\pic18-lt\cxx-framework\src\traditional\stdclib\strupr.asm
                    jSkip   0x011e90    program     static E:\c18v3.46\pic18-lt\cxx-framework\src\traditional\stdclib\strupr.asm
                     jEnd   0x011e94    program     static E:\c18v3.46\pic18-lt\cxx-framework\src\traditional\stdclib\strupr.asm
             SevenSegment   0x011e96    program     static D:\fei\MPLABXProjects\ENIAC\7segment.c
      SevenSegmentDisplay   0x011f12    program     extern D:\fei\MPLABXProjects\ENIAC\7segment.c
          SevenSegmentISR   0x01205a    program     extern D:\fei\MPLABXProjects\ENIAC\7segment.c
                 TickInit   0x0120a0    program     extern D:\fei\MPLABXProjects\ENIAC\Microchip\TCPIP Stack\Tick.c
           ___do_lbl00005   0x0120b0    program     static                          
              GetTickCopy   0x0120b0    program     static D:\fei\MPLABXProjects\ENIAC\Microchip\TCPIP Stack\Tick.c
           ___if_lbl00004   0x0120b4    program     static                          
           ___do_lbl00002   0x0120d6    program     static                          
           ___do_lbl00003   0x0120da    program     static                          
       ___return_lbl00001   0x0120dc    program     static                          
                  TickGet   0x0120de    program     extern D:\fei\MPLABXProjects\ENIAC\Microchip\TCPIP Stack\Tick.c
            TickGetDiv256   0x0120f4    program     extern D:\fei\MPLABXProjects\ENIAC\Microchip\TCPIP Stack\Tick.c
            TickGetDiv64K   0x012142    program     extern D:\fei\MPLABXProjects\ENIAC\Microchip\TCPIP Stack\Tick.c
TickConvertToMilliseconds   0x012190    program     extern D:\fei\MPLABXProjects\ENIAC\Microchip\TCPIP Stack\Tick.c
               TickUpdate   0x0121d4    program     extern D:\fei\MPLABXProjects\ENIAC\Microchip\TCPIP Stack\Tick.c
              ICMPProcess   0x0121e8    program     extern D:\fei\MPLABXProjects\ENIAC\Microchip\TCPIP Stack\ICMP.c
                     itoa   0x01232e    program     extern E:\c18v3.46\pic18-lt\cxx-framework\src\traditional\stdclib\itoa.asm
                jTstSign1   0x01235a    program     static E:\c18v3.46\pic18-lt\cxx-framework\src\traditional\stdclib\itoa.asm
                     jDo5   0x0123a4    program     static E:\c18v3.46\pic18-lt\cxx-framework\src\traditional\stdclib\itoa.asm
                     jDo4   0x0123a8    program     static E:\c18v3.46\pic18-lt\cxx-framework\src\traditional\stdclib\itoa.asm
                     jDo3   0x0123ac    program     static E:\c18v3.46\pic18-lt\cxx-framework\src\traditional\stdclib\itoa.asm
                     jDo2   0x0123b0    program     static E:\c18v3.46\pic18-lt\cxx-framework\src\traditional\stdclib\itoa.asm
                     jDo1   0x0123b4    program     static E:\c18v3.46\pic18-lt\cxx-framework\src\traditional\stdclib\itoa.asm
                 TstUpper   0x0123e8    program     static E:\c18v3.46\pic18-lt\cxx-framework\src\traditional\stdclib\itoa.asm
                 TstLower   0x0123ee    program     static E:\c18v3.46\pic18-lt\cxx-framework\src\traditional\stdclib\itoa.asm
                jTstLowZ1   0x0123f8    program     static E:\c18v3.46\pic18-lt\cxx-framework\src\traditional\stdclib\itoa.asm
                ProcUpper   0x0123fa    program     static E:\c18v3.46\pic18-lt\cxx-framework\src\traditional\stdclib\itoa.asm
                ProcLower   0x012404    program     static E:\c18v3.46\pic18-lt\cxx-framework\src\traditional\stdclib\itoa.asm
                   itoBCD   0x01240e    program     extern E:\c18v3.46\pic18-lt\cxx-framework\src\traditional\stdclib\itobcd.asm
                    jLoop   0x012426    program     static E:\c18v3.46\pic18-lt\cxx-framework\src\traditional\stdclib\itobcd.asm
                     jEnd   0x01244c    program     static E:\c18v3.46\pic18-lt\cxx-framework\src\traditional\stdclib\itobcd.asm
                  OneByte   0x012450    program     static E:\c18v3.46\pic18-lt\cxx-framework\src\traditional\stdclib\itobcd.asm
                _UnpkMath   0x012462    program     extern E:\c18v3.46\pic18-lt\cxx-framework\src\traditional\stdclib\UnpkMath.c
                   __pa_0   0x012570    program     static E:\c18v3.46\pic18-lt\cxx-framework\src\traditional\stdclib\UnpkMath.c
      ReadHumidityHIH5031   0x01257e    program     extern D:\fei\MPLABXProjects\ENIAC\HIH-5031.c
                   LowISR   0x01268a    program     extern D:\fei\MPLABXProjects\ENIAC\Main.c
                  HighISR   0x012752    program     extern D:\fei\MPLABXProjects\ENIAC\Main.c
                     main   0x012764    program     extern D:\fei\MPLABXProjects\ENIAC\Main.c
                _do_cinit   0x012784    program     extern E:\c18v3.46\pic18-lt\cxx-framework\src\traditional\startup\c018iz.c
                     test   0x01279e    program     static                          
                copy_loop   0x0127f6    program     static                          
            copy_one_byte   0x0127fc    program     static                          
             done_copying   0x01280a    program     static                          
       ___return_lbl00002   0x012820    program     static                          
                     done   0x012820    program     static                          
              InitSensors   0x012822    program     extern D:\fei\MPLABXProjects\ENIAC\Sensors.c
          ReadTemperature   0x012826    program     extern D:\fei\MPLABXProjects\ENIAC\Sensors.c
             ReadPressure   0x01286e    program     extern D:\fei\MPLABXProjects\ENIAC\Sensors.c
             ReadHumidity   0x012876    program     extern D:\fei\MPLABXProjects\ENIAC\Sensors.c
                WriteI2C1   0x0128ac    program     extern E:\c18v3.46\pic18-lt\cxx-framework\src\pmc_common\i2c\i2c1writ.c
                  OpenADC   0x01292c    program     extern E:\c18v3.46\pic18-lt\cxx-framework\src\pmc_common\ADC\adcopen.c
                     fabs   0x01299a    program     extern E:\c18v3.46\pic18-lt\cxx-framework\src\traditional\stdclib\fabs.c
                      sin   0x012a00    program     extern E:\c18v3.46\pic18-lt\cxx-framework\src\traditional\stdclib\sin.c
                 FXD3232U   0x012a50    program     extern E:\c18v3.46\pic18-lt\cxx-framework\src\traditional\math\fxd3232u.c
                     loop   0x012a5e    program     static                          
                   _false   0x012a92    program     static                          
       ___return_lbl00000   0x012a96    program     static                          
               OpenTimer2   0x012a98    program     extern E:\c18v3.46\pic18-lt\cxx-framework\src\pmc_common\Timers\t2open.c
                 OpenI2C1   0x012ace    program     extern E:\c18v3.46\pic18-lt\cxx-framework\src\pmc_common\i2c\i2c1open.c
                 FXD1616U   0x012b04    program     extern E:\c18v3.46\pic18-lt\cxx-framework\src\traditional\math\fxd1616u.c
                     loop   0x012b0e    program     static                          
                  endloop   0x012b2a    program     static                          
       ___return_lbl00000   0x012b2e    program     static                          
            __zero_memory   0x012b30    program     extern E:\c18v3.46\pic18-lt\cxx-framework\src\traditional\proc\p18f67j60.asm
               zero_block   0x012b4a    program     static E:\c18v3.46\pic18-lt\cxx-framework\src\traditional\proc\p18f67j60.asm
                   loop_h   0x012b4a    program     static E:\c18v3.46\pic18-lt\cxx-framework\src\traditional\proc\p18f67j60.asm
                compare_l   0x012b52    program     static E:\c18v3.46\pic18-lt\cxx-framework\src\traditional\proc\p18f67j60.asm
                   loop_l   0x012b54    program     static E:\c18v3.46\pic18-lt\cxx-framework\src\traditional\proc\p18f67j60.asm
               __string_0   0x012b5c    program     static D:\fei\MPLABXProjects\ENIAC\Microchip\TCPIP Stack\Announce.c
               __string_1   0x012b78    program     static D:\fei\MPLABXProjects\ENIAC\Setup.c
               __string_0   0x012b7a    program     static D:\fei\MPLABXProjects\ENIAC\Setup.c
                 _startup   0x012b84    program     extern E:\c18v3.46\pic18-lt\cxx-framework\src\traditional\startup\c018iz.c
                     loop   0x012b98    program     static                          
       ___return_lbl00001   0x012ba2    program     static                          
                 ReadI2C1   0x012ba4    program     extern E:\c18v3.46\pic18-lt\cxx-framework\src\pmc_common\i2c\i2c1read.c
     TCPSocketInitializer   0x012bbe    program     extern D:\fei\MPLABXProjects\ENIAC\Configs\TCPIP ETH97.h
               ConvertADC   0x012bca    program     extern E:\c18v3.46\pic18-lt\cxx-framework\src\pmc_common\ADC\adcconv.c
               __config_0   0x01fff8    program     static D:\fei\MPLABXProjects\ENIAC\Setup.c
               __config_1   0x01fff9    program     static D:\fei\MPLABXProjects\ENIAC\Setup.c
               __config_2   0x01fffa    program     static D:\fei\MPLABXProjects\ENIAC\Setup.c
               __config_3   0x01fffd    program     static D:\fei\MPLABXProjects\ENIAC\Setup.c
                  __tmp_0   0x000000       data     static D:\fei\MPLABXProjects\ENIAC\Microchip\TCPIP Stack\TCP.c
                  __tmp_0   0x000000       data     static D:\fei\MPLABXProjects\ENIAC\NodeTCPClient0.c
                  __tmp_0   0x000000       data     static E:\c18v3.46\pic18-lt\cxx-framework\src\pmc_common\i2c\i2c1writ.c
                  __tmp_0   0x000000       data     static E:\c18v3.46\pic18-lt\cxx-framework\src\pmc_common\ADC\adcopen.c
                  __tmp_0   0x000000       data     static E:\c18v3.46\pic18-lt\cxx-framework\src\traditional\stdclib\sin.c
                  __tmp_0   0x000000       data     static E:\c18v3.46\pic18-lt\cxx-framework\src\traditional\stdclib\sincos.c
                  __tmp_0   0x000000       data     static E:\c18v3.46\pic18-lt\cxx-framework\src\traditional\stdclib\UnpkMath.c
                  __tmp_0   0x000000       data     static E:\c18v3.46\pic18-lt\cxx-framework\src\traditional\stdclib\fabs.c
                  __tmp_0   0x000000       data     static D:\fei\MPLABXProjects\ENIAC\HIH-5031.c
                  __tmp_0   0x000000       data     static D:\fei\MPLABXProjects\ENIAC\Sensors.c
                  __tmp_0   0x000000       data     static D:\fei\MPLABXProjects\ENIAC\Microchip\TCPIP Stack\Announce.c
                  __tmp_0   0x000000       data     static D:\fei\MPLABXProjects\ENIAC\I2CHelpers.c
                  __tmp_0   0x000000       data     static D:\fei\MPLABXProjects\ENIAC\Microchip\TCPIP Stack\ARP.c
                  __tmp_0   0x000000       data     static D:\fei\MPLABXProjects\ENIAC\Microchip\TCPIP Stack\BerkeleyAPI.c
                  __tmp_0   0x000000       data     static D:\fei\MPLABXProjects\ENIAC\Microchip\TCPIP Stack\DHCP.c
                  __tmp_0   0x000000       data     static D:\fei\MPLABXProjects\ENIAC\MCP9808.c
                  __tmp_0   0x000000       data     static D:\fei\MPLABXProjects\ENIAC\MPL3115A2.c
                  __tmp_0   0x000000       data     static D:\fei\MPLABXProjects\ENIAC\Microchip\TCPIP Stack\ETH97J60.c
                  __tmp_0   0x000000       data     static D:\fei\MPLABXProjects\ENIAC\NodeUDPServer.c
                  __tmp_0   0x000000       data     static D:\fei\MPLABXProjects\ENIAC\Microchip\TCPIP Stack\Helpers.c
                  __tmp_0   0x000000       data     static D:\fei\MPLABXProjects\ENIAC\Microchip\TCPIP Stack\ICMP.c
                  __tmp_0   0x000000       data     static D:\fei\MPLABXProjects\ENIAC\Microchip\TCPIP Stack\IP.c
                  __tmp_0   0x000000       data     static D:\fei\MPLABXProjects\ENIAC\NodeUDPClient.c
                  __tmp_0   0x000000       data     static D:\fei\MPLABXProjects\ENIAC\Setup.c
                  __tmp_0   0x000000       data     static D:\fei\MPLABXProjects\ENIAC\7segment.c
                  __tmp_0   0x000000       data     static D:\fei\MPLABXProjects\ENIAC\Microchip\TCPIP Stack\StackTsk.c
                  __tmp_0   0x000000       data     static D:\fei\MPLABXProjects\ENIAC\Microchip\TCPIP Stack\UDP.c
                  __tmp_0   0x000000       data     static D:\fei\MPLABXProjects\ENIAC\NodeTCPClient1.c
                  __tmp_0   0x000000       data     static D:\fei\MPLABXProjects\ENIAC\Node.c
                     SIGN   0x00001e       data     extern E:\c18v3.46\pic18-lt\cxx-framework\src\traditional\math\cmath18.asm
            __FPFLAGSbits   0x00001f       data     extern E:\c18v3.46\pic18-lt\cxx-framework\src\traditional\math\cmath18.asm
                __FPFLAGS   0x00001f       data     extern E:\c18v3.46\pic18-lt\cxx-framework\src\traditional\math\cmath18.asm
                  __REMB3   0x000020       data     extern E:\c18v3.46\pic18-lt\cxx-framework\src\traditional\math\aarg.asm
                 __AARGB7   0x000020       data     extern E:\c18v3.46\pic18-lt\cxx-framework\src\traditional\math\aarg.asm
                  __REMB2   0x000021       data     extern E:\c18v3.46\pic18-lt\cxx-framework\src\traditional\math\aarg.asm
                 __AARGB6   0x000021       data     extern E:\c18v3.46\pic18-lt\cxx-framework\src\traditional\math\aarg.asm
                  __REMB1   0x000022       data     extern E:\c18v3.46\pic18-lt\cxx-framework\src\traditional\math\aarg.asm
                 __AARGB5   0x000022       data     extern E:\c18v3.46\pic18-lt\cxx-framework\src\traditional\math\aarg.asm
                  __REMB0   0x000023       data     extern E:\c18v3.46\pic18-lt\cxx-framework\src\traditional\math\aarg.asm
                 __AARGB4   0x000023       data     extern E:\c18v3.46\pic18-lt\cxx-framework\src\traditional\math\aarg.asm
                 __AARGB3   0x000024       data     extern E:\c18v3.46\pic18-lt\cxx-framework\src\traditional\math\aarg.asm
                 __AARGB2   0x000025       data     extern E:\c18v3.46\pic18-lt\cxx-framework\src\traditional\math\aarg.asm
                 __AARGB1   0x000026       data     extern E:\c18v3.46\pic18-lt\cxx-framework\src\traditional\math\aarg.asm
                 __AARGB0   0x000027       data     extern E:\c18v3.46\pic18-lt\cxx-framework\src\traditional\math\aarg.asm
                   __AEXP   0x000028       data     extern E:\c18v3.46\pic18-lt\cxx-framework\src\traditional\math\aarg.asm
                 __BARGB3   0x000029       data     extern E:\c18v3.46\pic18-lt\cxx-framework\src\traditional\math\barg.asm
                 __BARGB2   0x00002a       data     extern E:\c18v3.46\pic18-lt\cxx-framework\src\traditional\math\barg.asm
                 __BARGB1   0x00002b       data     extern E:\c18v3.46\pic18-lt\cxx-framework\src\traditional\math\barg.asm
                 __BARGB0   0x00002c       data     extern E:\c18v3.46\pic18-lt\cxx-framework\src\traditional\math\barg.asm
                   __BEXP   0x00002d       data     extern E:\c18v3.46\pic18-lt\cxx-framework\src\traditional\math\barg.asm
                 __TEMPB3   0x00002e       data     extern E:\c18v3.46\pic18-lt\cxx-framework\src\traditional\math\temparg.asm
                 __TEMPB2   0x00002f       data     extern E:\c18v3.46\pic18-lt\cxx-framework\src\traditional\math\temparg.asm
                 __TEMPB1   0x000030       data     extern E:\c18v3.46\pic18-lt\cxx-framework\src\traditional\math\temparg.asm
                   __TEMP   0x000031       data     extern E:\c18v3.46\pic18-lt\cxx-framework\src\traditional\math\temparg.asm
                 __TEMPB0   0x000031       data     extern E:\c18v3.46\pic18-lt\cxx-framework\src\traditional\math\temparg.asm
                        z   0x000060       data     static D:\fei\MPLABXProjects\ENIAC\Node.c
                       xi   0x0000c8       data     static D:\fei\MPLABXProjects\ENIAC\Node.c
                    dxidt   0x000130       data     static D:\fei\MPLABXProjects\ENIAC\Node.c
                      eta   0x000194       data     static D:\fei\MPLABXProjects\ENIAC\Node.c
                     dzdt   0x0001f8       data     static D:\fei\MPLABXProjects\ENIAC\Node.c
            requestParams   0x000521       data     static D:\fei\MPLABXProjects\ENIAC\NodeUDPClient.c
                    start   0x000545       data     static D:\fei\MPLABXProjects\ENIAC\NodeUDPClient.c
                    close   0x000549       data     static D:\fei\MPLABXProjects\ENIAC\NodeUDPClient.c
         requesterSockets   0x00054d       data     static D:\fei\MPLABXProjects\ENIAC\NodeUDPClient.c
                    saddr   0x000551       data     static D:\fei\MPLABXProjects\ENIAC\NodeUDPClient.c
              sendBuffers   0x000591       data     static D:\fei\MPLABXProjects\ENIAC\NodeUDPClient.c
           receiveBuffers   0x0005b1       data     static D:\fei\MPLABXProjects\ENIAC\NodeUDPClient.c
        neighborValuePtrs   0x0005c1       data     static D:\fei\MPLABXProjects\ENIAC\NodeUDPClient.c
                   timers   0x0005c9       data     static D:\fei\MPLABXProjects\ENIAC\NodeUDPClient.c
               DHCPClient   0x0005d9       data     static D:\fei\MPLABXProjects\ENIAC\Microchip\TCPIP Stack\DHCP.c
                  smStack   0x0005f5       data     static D:\fei\MPLABXProjects\ENIAC\Microchip\TCPIP Stack\StackTsk.c
               remoteNode   0x0005f6       data     extern D:\fei\MPLABXProjects\ENIAC\Microchip\TCPIP Stack\StackTsk.c
            UDPSocketInfo   0x000600       data     extern D:\fei\MPLABXProjects\ENIAC\Microchip\TCPIP Stack\UDP.c
          activeUDPSocket   0x0006a1       data     extern D:\fei\MPLABXProjects\ENIAC\Microchip\TCPIP Stack\UDP.c
               UDPTxCount   0x0006a2       data     extern D:\fei\MPLABXProjects\ENIAC\Microchip\TCPIP Stack\UDP.c
               UDPRxCount   0x0006a4       data     extern D:\fei\MPLABXProjects\ENIAC\Microchip\TCPIP Stack\UDP.c
               wPutOffset   0x0006a6       data     static D:\fei\MPLABXProjects\ENIAC\Microchip\TCPIP Stack\UDP.c
               wGetOffset   0x0006a8       data     static D:\fei\MPLABXProjects\ENIAC\Microchip\TCPIP Stack\UDP.c
                    Flags   0x0006aa       data     static D:\fei\MPLABXProjects\ENIAC\Microchip\TCPIP Stack\UDP.c
                 NextPort   0x0006ab       data     static D:\fei\MPLABXProjects\ENIAC\Microchip\TCPIP Stack\UDP.c
                 NextPort   0x0006ad       data     static D:\fei\MPLABXProjects\ENIAC\Microchip\TCPIP Stack\TCP.c
                    MyTCB   0x0006af       data     static D:\fei\MPLABXProjects\ENIAC\Microchip\TCPIP Stack\TCP.c
                MyTCBStub   0x0006d6       data     static D:\fei\MPLABXProjects\ENIAC\Microchip\TCPIP Stack\TCP.c
               RemoteInfo   0x0006f2       data     static D:\fei\MPLABXProjects\ENIAC\Microchip\TCPIP Stack\TCP.c
                    errno   0x0006fe       data     extern E:\c18v3.46\pic18-lt\cxx-framework\src\traditional\stdclib\errno.c
           BSDSocketArray   0x000700       data     static D:\fei\MPLABXProjects\ENIAC\Microchip\TCPIP Stack\BerkeleyAPI.c
                 TCBStubs   0x000769       data     static D:\fei\MPLABXProjects\ENIAC\Microchip\TCPIP Stack\TCP.c
                AppConfig   0x0007a1       data     extern D:\fei\MPLABXProjects\ENIAC\Setup.c
        mainServerAddress   0x0007d4       data     extern D:\fei\MPLABXProjects\ENIAC\Node.c
           mainServerPort   0x0007d8       data     extern D:\fei\MPLABXProjects\ENIAC\Node.c
                     step   0x0007da       data     static D:\fei\MPLABXProjects\ENIAC\Node.c
           eniacNodeState   0x0007de       data     static D:\fei\MPLABXProjects\ENIAC\Node.c
      startUDPServerState   0x0007df       data     static D:\fei\MPLABXProjects\ENIAC\Node.c
            initNodeState   0x0007e0       data     static D:\fei\MPLABXProjects\ENIAC\Node.c
 neighborDescriptorsState   0x0007e1       data     static D:\fei\MPLABXProjects\ENIAC\Node.c
         calculateXIState   0x0007e2       data     static D:\fei\MPLABXProjects\ENIAC\Node.c
checkIfFluidIsLeavingState   0x0007e3       data     static D:\fei\MPLABXProjects\ENIAC\Node.c
       extrapolateXIState   0x0007e4       data     static D:\fei\MPLABXProjects\ENIAC\Node.c
      calculateDXIDTState   0x0007e5       data     static D:\fei\MPLABXProjects\ENIAC\Node.c
                  it_step   0x0007e6       data     static D:\fei\MPLABXProjects\ENIAC\Node.c
     poissonEquationState   0x0007ea       data     static D:\fei\MPLABXProjects\ENIAC\Node.c
    extrapolateDXIDTState   0x0007eb       data     static D:\fei\MPLABXProjects\ENIAC\Node.c
                    Cache   0x0007ec       data     static D:\fei\MPLABXProjects\ENIAC\Microchip\TCPIP Stack\ARP.c
                   Target   0x0007f6       data     static D:\fei\MPLABXProjects\ENIAC\Microchip\TCPIP Stack\ARP.c
            requestParams   0x000800       data     static D:\fei\MPLABXProjects\ENIAC\NodeTCPClient0.c
                    start   0x00080c       data     static D:\fei\MPLABXProjects\ENIAC\NodeTCPClient0.c
          requesterSocket   0x00080d       data     static D:\fei\MPLABXProjects\ENIAC\NodeTCPClient0.c
                     prom   0x00080e       data     static E:\c18v3.46\pic18-lt\cxx-framework\src\traditional\startup\c018iz.c
                curr_byte   0x000811       data     static E:\c18v3.46\pic18-lt\cxx-framework\src\traditional\startup\c018iz.c
               curr_entry   0x000813       data     static E:\c18v3.46\pic18-lt\cxx-framework\src\traditional\startup\c018iz.c
                 data_ptr   0x000815       data     static E:\c18v3.46\pic18-lt\cxx-framework\src\traditional\startup\c018iz.c
       NextPacketLocation   0x000818       data     static D:\fei\MPLABXProjects\ENIAC\Microchip\TCPIP Stack\ETH97J60.c
    CurrentPacketLocation   0x00081a       data     static D:\fei\MPLABXProjects\ENIAC\Microchip\TCPIP Stack\ETH97J60.c
                    flags   0x00081c       data     static D:\fei\MPLABXProjects\ENIAC\Microchip\TCPIP Stack\ETH97J60.c
              wTXWatchdog   0x00081d       data     static D:\fei\MPLABXProjects\ENIAC\Microchip\TCPIP Stack\ETH97J60.c
             vTickReading   0x00081f       data     static D:\fei\MPLABXProjects\ENIAC\Microchip\TCPIP Stack\Tick.c
                   digits   0x000825       data     static D:\fei\MPLABXProjects\ENIAC\7segment.c
                        i   0x000829       data     static D:\fei\MPLABXProjects\ENIAC\7segment.c
                 toRotate   0x00082a       data     extern D:\fei\MPLABXProjects\ENIAC\Microchip\TCPIP Stack\Helpers.c
                startTick   0x00082e       data     static D:\fei\MPLABXProjects\ENIAC\Microchip\TCPIP Stack\BerkeleyAPI.c
          dwInternalTicks   0x000832       data     static D:\fei\MPLABXProjects\ENIAC\Microchip\TCPIP Stack\Tick.c
              closeServer   0x000836       data     static D:\fei\MPLABXProjects\ENIAC\NodeUDPServer.c
       nodeUDPServerState   0x000837       data     static D:\fei\MPLABXProjects\ENIAC\NodeUDPServer.c
                 caddrlen   0x000838       data     static D:\fei\MPLABXProjects\ENIAC\NodeUDPServer.c
      nodeUDPClientStates   0x00083a       data     static D:\fei\MPLABXProjects\ENIAC\NodeUDPClient.c
                    Timer   0x00083e       data     static D:\fei\MPLABXProjects\ENIAC\MPL3115A2.c
           dwLFSRRandSeed   0x000842       data     static D:\fei\MPLABXProjects\ENIAC\Microchip\TCPIP Stack\Helpers.c
            requestParams   0x000846       data     static D:\fei\MPLABXProjects\ENIAC\NodeTCPClient1.c
          requesterSocket   0x000848       data     static D:\fei\MPLABXProjects\ENIAC\NodeTCPClient1.c
                    start   0x000849       data     static D:\fei\MPLABXProjects\ENIAC\NodeTCPClient1.c
                    close   0x00084a       data     static D:\fei\MPLABXProjects\ENIAC\NodeTCPClient1.c
      nodeTCPClient1State   0x00084b       data     static D:\fei\MPLABXProjects\ENIAC\NodeTCPClient1.c
                        b   0x00084c       data     static D:\fei\MPLABXProjects\ENIAC\I2CHelpers.c
                        b   0x00084d       data     static D:\fei\MPLABXProjects\ENIAC\I2CHelpers.c
            LastPutSocket   0x00084e       data     static D:\fei\MPLABXProjects\ENIAC\Microchip\TCPIP Stack\UDP.c
         SocketWithRxData   0x00084f       data     static D:\fei\MPLABXProjects\ENIAC\Microchip\TCPIP Stack\UDP.c
              hCurrentTCP   0x000850       data     static D:\fei\MPLABXProjects\ENIAC\Microchip\TCPIP Stack\TCP.c
                 hLastTCB   0x000851       data     static D:\fei\MPLABXProjects\ENIAC\Microchip\TCPIP Stack\TCP.c
              _Identifier   0x000852       data     static D:\fei\MPLABXProjects\ENIAC\Microchip\TCPIP Stack\IP.c
          gAutoPortNumber   0x000854       data     static D:\fei\MPLABXProjects\ENIAC\Microchip\TCPIP Stack\BerkeleyAPI.c
              IPHeaderLen   0x000856       data     static D:\fei\MPLABXProjects\ENIAC\Microchip\TCPIP Stack\IP.c
                 MySocket   0x000857       data     static D:\fei\MPLABXProjects\ENIAC\Microchip\TCPIP Stack\Announce.c
           bLastLinkState   0x000858       data     static D:\fei\MPLABXProjects\ENIAC\Microchip\TCPIP Stack\StackTsk.c
      nodeTCPClient0State   0x000859       data     static D:\fei\MPLABXProjects\ENIAC\NodeTCPClient0.c
DHCPClientInitializedOnce   0x00085a       data     extern D:\fei\MPLABXProjects\ENIAC\Microchip\TCPIP Stack\DHCP.c
              DiscoverySM   0x00085b       data     static D:\fei\MPLABXProjects\ENIAC\Microchip\TCPIP Stack\Announce.c
                    smARP   0x00085c       data     static D:\fei\MPLABXProjects\ENIAC\Microchip\TCPIP Stack\ARP.c
                 gridSize   0x000e00       data     extern D:\fei\MPLABXProjects\ENIAC\Node.c
                    inner   0x000e08       data     static D:\fei\MPLABXProjects\ENIAC\Node.c
                 northern   0x000e09       data     static D:\fei\MPLABXProjects\ENIAC\Node.c
                  eastern   0x000e0a       data     static D:\fei\MPLABXProjects\ENIAC\Node.c
                 southern   0x000e0b       data     static D:\fei\MPLABXProjects\ENIAC\Node.c
                  western   0x000e0c       data     static D:\fei\MPLABXProjects\ENIAC\Node.c
             fluidLeaving   0x000e0d       data     static D:\fei\MPLABXProjects\ENIAC\Node.c
                        m   0x000e0e       data     static D:\fei\MPLABXProjects\ENIAC\Node.c
                        f   0x000e12       data     static D:\fei\MPLABXProjects\ENIAC\Node.c
                        h   0x000e16       data     static D:\fei\MPLABXProjects\ENIAC\Node.c
               descriptor   0x000e1a       data     extern D:\fei\MPLABXProjects\ENIAC\Node.c
      neighborDescriptors   0x000e28       data     extern D:\fei\MPLABXProjects\ENIAC\Node.c
           neighborValues   0x000e60       data     static D:\fei\MPLABXProjects\ENIAC\Node.c
                     dzdx   0x000e70       data     static D:\fei\MPLABXProjects\ENIAC\Node.c
                     dzdy   0x000e74       data     static D:\fei\MPLABXProjects\ENIAC\Node.c
                   detadx   0x000e78       data     static D:\fei\MPLABXProjects\ENIAC\Node.c
                   detady   0x000e7c       data     static D:\fei\MPLABXProjects\ENIAC\Node.c
                   MAADR5   0x000e80       data     extern E:\c18v3.46\pic18-lt\cxx-framework\src\traditional\proc\p18f67j60.asm
                   MAADR6   0x000e81       data     extern E:\c18v3.46\pic18-lt\cxx-framework\src\traditional\proc\p18f67j60.asm
                   MAADR3   0x000e82       data     extern E:\c18v3.46\pic18-lt\cxx-framework\src\traditional\proc\p18f67j60.asm
                   MAADR4   0x000e83       data     extern E:\c18v3.46\pic18-lt\cxx-framework\src\traditional\proc\p18f67j60.asm
                   MAADR1   0x000e84       data     extern E:\c18v3.46\pic18-lt\cxx-framework\src\traditional\proc\p18f67j60.asm
                   MAADR2   0x000e85       data     extern E:\c18v3.46\pic18-lt\cxx-framework\src\traditional\proc\p18f67j60.asm
                   MISTAT   0x000e8a       data     extern E:\c18v3.46\pic18-lt\cxx-framework\src\traditional\proc\p18f67j60.asm
               MISTATbits   0x000e8a       data     extern E:\c18v3.46\pic18-lt\cxx-framework\src\traditional\proc\p18f67j60.asm
              EFLOCONbits   0x000e97       data     extern E:\c18v3.46\pic18-lt\cxx-framework\src\traditional\proc\p18f67j60.asm
                  EFLOCON   0x000e97       data     extern E:\c18v3.46\pic18-lt\cxx-framework\src\traditional\proc\p18f67j60.asm
                    EPAUS   0x000e98       data     extern E:\c18v3.46\pic18-lt\cxx-framework\src\traditional\proc\p18f67j60.asm
                   EPAUSL   0x000e98       data     extern E:\c18v3.46\pic18-lt\cxx-framework\src\traditional\proc\p18f67j60.asm
                   EPAUSH   0x000e99       data     extern E:\c18v3.46\pic18-lt\cxx-framework\src\traditional\proc\p18f67j60.asm
                   MACON1   0x000ea0       data     extern E:\c18v3.46\pic18-lt\cxx-framework\src\traditional\proc\p18f67j60.asm
               MACON1bits   0x000ea0       data     extern E:\c18v3.46\pic18-lt\cxx-framework\src\traditional\proc\p18f67j60.asm
                   MACON3   0x000ea2       data     extern E:\c18v3.46\pic18-lt\cxx-framework\src\traditional\proc\p18f67j60.asm
               MACON3bits   0x000ea2       data     extern E:\c18v3.46\pic18-lt\cxx-framework\src\traditional\proc\p18f67j60.asm
                   MACON4   0x000ea3       data     extern E:\c18v3.46\pic18-lt\cxx-framework\src\traditional\proc\p18f67j60.asm
               MACON4bits   0x000ea3       data     extern E:\c18v3.46\pic18-lt\cxx-framework\src\traditional\proc\p18f67j60.asm
                  MABBIPG   0x000ea4       data     extern E:\c18v3.46\pic18-lt\cxx-framework\src\traditional\proc\p18f67j60.asm
              MABBIPGbits   0x000ea4       data     extern E:\c18v3.46\pic18-lt\cxx-framework\src\traditional\proc\p18f67j60.asm
                    MAIPG   0x000ea6       data     extern E:\c18v3.46\pic18-lt\cxx-framework\src\traditional\proc\p18f67j60.asm
                   MAIPGL   0x000ea6       data     extern E:\c18v3.46\pic18-lt\cxx-framework\src\traditional\proc\p18f67j60.asm
                   MAIPGH   0x000ea7       data     extern E:\c18v3.46\pic18-lt\cxx-framework\src\traditional\proc\p18f67j60.asm
                  MAMXFLL   0x000eaa       data     extern E:\c18v3.46\pic18-lt\cxx-framework\src\traditional\proc\p18f67j60.asm
                   MAMXFL   0x000eaa       data     extern E:\c18v3.46\pic18-lt\cxx-framework\src\traditional\proc\p18f67j60.asm
                  MAMXFLH   0x000eab       data     extern E:\c18v3.46\pic18-lt\cxx-framework\src\traditional\proc\p18f67j60.asm
                    MICMD   0x000eb2       data     extern E:\c18v3.46\pic18-lt\cxx-framework\src\traditional\proc\p18f67j60.asm
                MICMDbits   0x000eb2       data     extern E:\c18v3.46\pic18-lt\cxx-framework\src\traditional\proc\p18f67j60.asm
                 MIREGADR   0x000eb4       data     extern E:\c18v3.46\pic18-lt\cxx-framework\src\traditional\proc\p18f67j60.asm
                    MIWRL   0x000eb6       data     extern E:\c18v3.46\pic18-lt\cxx-framework\src\traditional\proc\p18f67j60.asm
                     MIWR   0x000eb6       data     extern E:\c18v3.46\pic18-lt\cxx-framework\src\traditional\proc\p18f67j60.asm
                    MIWRH   0x000eb7       data     extern E:\c18v3.46\pic18-lt\cxx-framework\src\traditional\proc\p18f67j60.asm
                     MIRD   0x000eb8       data     extern E:\c18v3.46\pic18-lt\cxx-framework\src\traditional\proc\p18f67j60.asm
                    MIRDL   0x000eb8       data     extern E:\c18v3.46\pic18-lt\cxx-framework\src\traditional\proc\p18f67j60.asm
                    MIRDH   0x000eb9       data     extern E:\c18v3.46\pic18-lt\cxx-framework\src\traditional\proc\p18f67j60.asm
                     EHT0   0x000ec0       data     extern E:\c18v3.46\pic18-lt\cxx-framework\src\traditional\proc\p18f67j60.asm
                     EHT1   0x000ec1       data     extern E:\c18v3.46\pic18-lt\cxx-framework\src\traditional\proc\p18f67j60.asm
                     EHT2   0x000ec2       data     extern E:\c18v3.46\pic18-lt\cxx-framework\src\traditional\proc\p18f67j60.asm
                     EHT3   0x000ec3       data     extern E:\c18v3.46\pic18-lt\cxx-framework\src\traditional\proc\p18f67j60.asm
                     EHT4   0x000ec4       data     extern E:\c18v3.46\pic18-lt\cxx-framework\src\traditional\proc\p18f67j60.asm
                     EHT5   0x000ec5       data     extern E:\c18v3.46\pic18-lt\cxx-framework\src\traditional\proc\p18f67j60.asm
                     EHT6   0x000ec6       data     extern E:\c18v3.46\pic18-lt\cxx-framework\src\traditional\proc\p18f67j60.asm
                     EHT7   0x000ec7       data     extern E:\c18v3.46\pic18-lt\cxx-framework\src\traditional\proc\p18f67j60.asm
                    EPMM0   0x000ec8       data     extern E:\c18v3.46\pic18-lt\cxx-framework\src\traditional\proc\p18f67j60.asm
                    EPMM1   0x000ec9       data     extern E:\c18v3.46\pic18-lt\cxx-framework\src\traditional\proc\p18f67j60.asm
                    EPMM2   0x000eca       data     extern E:\c18v3.46\pic18-lt\cxx-framework\src\traditional\proc\p18f67j60.asm
                    EPMM3   0x000ecb       data     extern E:\c18v3.46\pic18-lt\cxx-framework\src\traditional\proc\p18f67j60.asm
                    EPMM4   0x000ecc       data     extern E:\c18v3.46\pic18-lt\cxx-framework\src\traditional\proc\p18f67j60.asm
                    EPMM5   0x000ecd       data     extern E:\c18v3.46\pic18-lt\cxx-framework\src\traditional\proc\p18f67j60.asm
                    EPMM6   0x000ece       data     extern E:\c18v3.46\pic18-lt\cxx-framework\src\traditional\proc\p18f67j60.asm
                    EPMM7   0x000ecf       data     extern E:\c18v3.46\pic18-lt\cxx-framework\src\traditional\proc\p18f67j60.asm
                   EPMCSL   0x000ed0       data     extern E:\c18v3.46\pic18-lt\cxx-framework\src\traditional\proc\p18f67j60.asm
                    EPMCS   0x000ed0       data     extern E:\c18v3.46\pic18-lt\cxx-framework\src\traditional\proc\p18f67j60.asm
                   EPMCSH   0x000ed1       data     extern E:\c18v3.46\pic18-lt\cxx-framework\src\traditional\proc\p18f67j60.asm
                     EPMO   0x000ed4       data     extern E:\c18v3.46\pic18-lt\cxx-framework\src\traditional\proc\p18f67j60.asm
                    EPMOL   0x000ed4       data     extern E:\c18v3.46\pic18-lt\cxx-framework\src\traditional\proc\p18f67j60.asm
                    EPMOH   0x000ed5       data     extern E:\c18v3.46\pic18-lt\cxx-framework\src\traditional\proc\p18f67j60.asm
              ERXFCONbits   0x000ed8       data     extern E:\c18v3.46\pic18-lt\cxx-framework\src\traditional\proc\p18f67j60.asm
                  ERXFCON   0x000ed8       data     extern E:\c18v3.46\pic18-lt\cxx-framework\src\traditional\proc\p18f67j60.asm
                  EPKTCNT   0x000ed9       data     extern E:\c18v3.46\pic18-lt\cxx-framework\src\traditional\proc\p18f67j60.asm
                   EWRPTL   0x000ee2       data     extern E:\c18v3.46\pic18-lt\cxx-framework\src\traditional\proc\p18f67j60.asm
                    EWRPT   0x000ee2       data     extern E:\c18v3.46\pic18-lt\cxx-framework\src\traditional\proc\p18f67j60.asm
                   EWRPTH   0x000ee3       data     extern E:\c18v3.46\pic18-lt\cxx-framework\src\traditional\proc\p18f67j60.asm
                    ETXST   0x000ee4       data     extern E:\c18v3.46\pic18-lt\cxx-framework\src\traditional\proc\p18f67j60.asm
                   ETXSTL   0x000ee4       data     extern E:\c18v3.46\pic18-lt\cxx-framework\src\traditional\proc\p18f67j60.asm
                   ETXSTH   0x000ee5       data     extern E:\c18v3.46\pic18-lt\cxx-framework\src\traditional\proc\p18f67j60.asm
                   ETXNDL   0x000ee6       data     extern E:\c18v3.46\pic18-lt\cxx-framework\src\traditional\proc\p18f67j60.asm
                    ETXND   0x000ee6       data     extern E:\c18v3.46\pic18-lt\cxx-framework\src\traditional\proc\p18f67j60.asm
                   ETXNDH   0x000ee7       data     extern E:\c18v3.46\pic18-lt\cxx-framework\src\traditional\proc\p18f67j60.asm
                    ERXST   0x000ee8       data     extern E:\c18v3.46\pic18-lt\cxx-framework\src\traditional\proc\p18f67j60.asm
                   ERXSTL   0x000ee8       data     extern E:\c18v3.46\pic18-lt\cxx-framework\src\traditional\proc\p18f67j60.asm
                   ERXSTH   0x000ee9       data     extern E:\c18v3.46\pic18-lt\cxx-framework\src\traditional\proc\p18f67j60.asm
                    ERXND   0x000eea       data     extern E:\c18v3.46\pic18-lt\cxx-framework\src\traditional\proc\p18f67j60.asm
                   ERXNDL   0x000eea       data     extern E:\c18v3.46\pic18-lt\cxx-framework\src\traditional\proc\p18f67j60.asm
                   ERXNDH   0x000eeb       data     extern E:\c18v3.46\pic18-lt\cxx-framework\src\traditional\proc\p18f67j60.asm
                  ERXRDPT   0x000eec       data     extern E:\c18v3.46\pic18-lt\cxx-framework\src\traditional\proc\p18f67j60.asm
                 ERXRDPTL   0x000eec       data     extern E:\c18v3.46\pic18-lt\cxx-framework\src\traditional\proc\p18f67j60.asm
                 ERXRDPTH   0x000eed       data     extern E:\c18v3.46\pic18-lt\cxx-framework\src\traditional\proc\p18f67j60.asm
                 ERXWRPTL   0x000eee       data     extern E:\c18v3.46\pic18-lt\cxx-framework\src\traditional\proc\p18f67j60.asm
                  ERXWRPT   0x000eee       data     extern E:\c18v3.46\pic18-lt\cxx-framework\src\traditional\proc\p18f67j60.asm
                 ERXWRPTH   0x000eef       data     extern E:\c18v3.46\pic18-lt\cxx-framework\src\traditional\proc\p18f67j60.asm
                  EDMASTL   0x000ef0       data     extern E:\c18v3.46\pic18-lt\cxx-framework\src\traditional\proc\p18f67j60.asm
                   EDMAST   0x000ef0       data     extern E:\c18v3.46\pic18-lt\cxx-framework\src\traditional\proc\p18f67j60.asm
                  EDMASTH   0x000ef1       data     extern E:\c18v3.46\pic18-lt\cxx-framework\src\traditional\proc\p18f67j60.asm
                  EDMANDL   0x000ef2       data     extern E:\c18v3.46\pic18-lt\cxx-framework\src\traditional\proc\p18f67j60.asm
                   EDMAND   0x000ef2       data     extern E:\c18v3.46\pic18-lt\cxx-framework\src\traditional\proc\p18f67j60.asm
                  EDMANDH   0x000ef3       data     extern E:\c18v3.46\pic18-lt\cxx-framework\src\traditional\proc\p18f67j60.asm
                 EDMADSTL   0x000ef4       data     extern E:\c18v3.46\pic18-lt\cxx-framework\src\traditional\proc\p18f67j60.asm
                  EDMADST   0x000ef4       data     extern E:\c18v3.46\pic18-lt\cxx-framework\src\traditional\proc\p18f67j60.asm
                 EDMADSTH   0x000ef5       data     extern E:\c18v3.46\pic18-lt\cxx-framework\src\traditional\proc\p18f67j60.asm
                   EDMACS   0x000ef6       data     extern E:\c18v3.46\pic18-lt\cxx-framework\src\traditional\proc\p18f67j60.asm
                  EDMACSL   0x000ef6       data     extern E:\c18v3.46\pic18-lt\cxx-framework\src\traditional\proc\p18f67j60.asm
                  EDMACSH   0x000ef7       data     extern E:\c18v3.46\pic18-lt\cxx-framework\src\traditional\proc\p18f67j60.asm
                  EIEbits   0x000efb       data     extern E:\c18v3.46\pic18-lt\cxx-framework\src\traditional\proc\p18f67j60.asm
                      EIE   0x000efb       data     extern E:\c18v3.46\pic18-lt\cxx-framework\src\traditional\proc\p18f67j60.asm
                ESTATbits   0x000efd       data     extern E:\c18v3.46\pic18-lt\cxx-framework\src\traditional\proc\p18f67j60.asm
                    ESTAT   0x000efd       data     extern E:\c18v3.46\pic18-lt\cxx-framework\src\traditional\proc\p18f67j60.asm
                    ECON2   0x000efe       data     extern E:\c18v3.46\pic18-lt\cxx-framework\src\traditional\proc\p18f67j60.asm
                ECON2bits   0x000efe       data     extern E:\c18v3.46\pic18-lt\cxx-framework\src\traditional\proc\p18f67j60.asm
                 SYNQueue   0x000f00       data     static D:\fei\MPLABXProjects\ENIAC\Microchip\TCPIP Stack\TCP.c
        nodeDescriptorPtr   0x000f3c       data     static D:\fei\MPLABXProjects\ENIAC\NodeUDPServer.c
           providerSocket   0x000f3e       data     static D:\fei\MPLABXProjects\ENIAC\NodeUDPServer.c
               sendBuffer   0x000f3f       data     static D:\fei\MPLABXProjects\ENIAC\NodeUDPServer.c
                    caddr   0x000f43       data     static D:\fei\MPLABXProjects\ENIAC\NodeUDPServer.c
                    timer   0x000f53       data     static D:\fei\MPLABXProjects\ENIAC\NodeUDPServer.c
            receiveBuffer   0x000f57       data     static D:\fei\MPLABXProjects\ENIAC\NodeUDPServer.c
              tblptru_sav   0x000f5f       data     static E:\c18v3.46\pic18-lt\cxx-framework\src\traditional\stdclib\mcpyp2r.asm
                      EIR   0x000f60       data     extern E:\c18v3.46\pic18-lt\cxx-framework\src\traditional\proc\p18f67j60.asm
                  EIRbits   0x000f60       data     extern E:\c18v3.46\pic18-lt\cxx-framework\src\traditional\proc\p18f67j60.asm
                    EDATA   0x000f61       data     extern E:\c18v3.46\pic18-lt\cxx-framework\src\traditional\proc\p18f67j60.asm
                EDATAbits   0x000f61       data     extern E:\c18v3.46\pic18-lt\cxx-framework\src\traditional\proc\p18f67j60.asm
                 ECCP2DEL   0x000f67       data     extern E:\c18v3.46\pic18-lt\cxx-framework\src\traditional\proc\p18f67j60.asm
             ECCP2DELbits   0x000f67       data     extern E:\c18v3.46\pic18-lt\cxx-framework\src\traditional\proc\p18f67j60.asm
              ECCP2ASbits   0x000f68       data     extern E:\c18v3.46\pic18-lt\cxx-framework\src\traditional\proc\p18f67j60.asm
                  ECCP2AS   0x000f68       data     extern E:\c18v3.46\pic18-lt\cxx-framework\src\traditional\proc\p18f67j60.asm
             ECCP3DELbits   0x000f69       data     extern E:\c18v3.46\pic18-lt\cxx-framework\src\traditional\proc\p18f67j60.asm
                 ECCP3DEL   0x000f69       data     extern E:\c18v3.46\pic18-lt\cxx-framework\src\traditional\proc\p18f67j60.asm
                  ECCP3AS   0x000f6a       data     extern E:\c18v3.46\pic18-lt\cxx-framework\src\traditional\proc\p18f67j60.asm
              ECCP3ASbits   0x000f6a       data     extern E:\c18v3.46\pic18-lt\cxx-framework\src\traditional\proc\p18f67j60.asm
              CCP5CONbits   0x000f70       data     extern E:\c18v3.46\pic18-lt\cxx-framework\src\traditional\proc\p18f67j60.asm
                  CCP5CON   0x000f70       data     extern E:\c18v3.46\pic18-lt\cxx-framework\src\traditional\proc\p18f67j60.asm
                   CCPR5L   0x000f71       data     extern E:\c18v3.46\pic18-lt\cxx-framework\src\traditional\proc\p18f67j60.asm
                    CCPR5   0x000f71       data     extern E:\c18v3.46\pic18-lt\cxx-framework\src\traditional\proc\p18f67j60.asm
                   CCPR5H   0x000f72       data     extern E:\c18v3.46\pic18-lt\cxx-framework\src\traditional\proc\p18f67j60.asm
              CCP4CONbits   0x000f73       data     extern E:\c18v3.46\pic18-lt\cxx-framework\src\traditional\proc\p18f67j60.asm
                  CCP4CON   0x000f73       data     extern E:\c18v3.46\pic18-lt\cxx-framework\src\traditional\proc\p18f67j60.asm
                    CCPR4   0x000f74       data     extern E:\c18v3.46\pic18-lt\cxx-framework\src\traditional\proc\p18f67j60.asm
                   CCPR4L   0x000f74       data     extern E:\c18v3.46\pic18-lt\cxx-framework\src\traditional\proc\p18f67j60.asm
                   CCPR4H   0x000f75       data     extern E:\c18v3.46\pic18-lt\cxx-framework\src\traditional\proc\p18f67j60.asm
                T4CONbits   0x000f76       data     extern E:\c18v3.46\pic18-lt\cxx-framework\src\traditional\proc\p18f67j60.asm
                    T4CON   0x000f76       data     extern E:\c18v3.46\pic18-lt\cxx-framework\src\traditional\proc\p18f67j60.asm
                      PR4   0x000f77       data     extern E:\c18v3.46\pic18-lt\cxx-framework\src\traditional\proc\p18f67j60.asm
                     TMR4   0x000f78       data     extern E:\c18v3.46\pic18-lt\cxx-framework\src\traditional\proc\p18f67j60.asm
                 ECCP1DEL   0x000f79       data     extern E:\c18v3.46\pic18-lt\cxx-framework\src\traditional\proc\p18f67j60.asm
             ECCP1DELbits   0x000f79       data     extern E:\c18v3.46\pic18-lt\cxx-framework\src\traditional\proc\p18f67j60.asm
                    ERDPT   0x000f7a       data     extern E:\c18v3.46\pic18-lt\cxx-framework\src\traditional\proc\p18f67j60.asm
                   ERDPTL   0x000f7a       data     extern E:\c18v3.46\pic18-lt\cxx-framework\src\traditional\proc\p18f67j60.asm
                   ERDPTH   0x000f7b       data     extern E:\c18v3.46\pic18-lt\cxx-framework\src\traditional\proc\p18f67j60.asm
             BAUDCTL1bits   0x000f7e       data     extern E:\c18v3.46\pic18-lt\cxx-framework\src\traditional\proc\p18f67j60.asm
                 BAUDCON1   0x000f7e       data     extern E:\c18v3.46\pic18-lt\cxx-framework\src\traditional\proc\p18f67j60.asm
             BAUDCON1bits   0x000f7e       data     extern E:\c18v3.46\pic18-lt\cxx-framework\src\traditional\proc\p18f67j60.asm
                  BAUDCON   0x000f7e       data     extern E:\c18v3.46\pic18-lt\cxx-framework\src\traditional\proc\p18f67j60.asm
              BAUDCONbits   0x000f7e       data     extern E:\c18v3.46\pic18-lt\cxx-framework\src\traditional\proc\p18f67j60.asm
                  BAUDCTL   0x000f7e       data     extern E:\c18v3.46\pic18-lt\cxx-framework\src\traditional\proc\p18f67j60.asm
              BAUDCTLbits   0x000f7e       data     extern E:\c18v3.46\pic18-lt\cxx-framework\src\traditional\proc\p18f67j60.asm
                 BAUDCTL1   0x000f7e       data     extern E:\c18v3.46\pic18-lt\cxx-framework\src\traditional\proc\p18f67j60.asm
                   SPBRGH   0x000f7f       data     extern E:\c18v3.46\pic18-lt\cxx-framework\src\traditional\proc\p18f67j60.asm
                  SPBRGH1   0x000f7f       data     extern E:\c18v3.46\pic18-lt\cxx-framework\src\traditional\proc\p18f67j60.asm
                PORTAbits   0x000f80       data     extern E:\c18v3.46\pic18-lt\cxx-framework\src\traditional\proc\p18f67j60.asm
                    PORTA   0x000f80       data     extern E:\c18v3.46\pic18-lt\cxx-framework\src\traditional\proc\p18f67j60.asm
                PORTBbits   0x000f81       data     extern E:\c18v3.46\pic18-lt\cxx-framework\src\traditional\proc\p18f67j60.asm
                    PORTB   0x000f81       data     extern E:\c18v3.46\pic18-lt\cxx-framework\src\traditional\proc\p18f67j60.asm
                PORTCbits   0x000f82       data     extern E:\c18v3.46\pic18-lt\cxx-framework\src\traditional\proc\p18f67j60.asm
                    PORTC   0x000f82       data     extern E:\c18v3.46\pic18-lt\cxx-framework\src\traditional\proc\p18f67j60.asm
                PORTDbits   0x000f83       data     extern E:\c18v3.46\pic18-lt\cxx-framework\src\traditional\proc\p18f67j60.asm
                    PORTD   0x000f83       data     extern E:\c18v3.46\pic18-lt\cxx-framework\src\traditional\proc\p18f67j60.asm
                PORTEbits   0x000f84       data     extern E:\c18v3.46\pic18-lt\cxx-framework\src\traditional\proc\p18f67j60.asm
                    PORTE   0x000f84       data     extern E:\c18v3.46\pic18-lt\cxx-framework\src\traditional\proc\p18f67j60.asm
                PORTFbits   0x000f85       data     extern E:\c18v3.46\pic18-lt\cxx-framework\src\traditional\proc\p18f67j60.asm
                    PORTF   0x000f85       data     extern E:\c18v3.46\pic18-lt\cxx-framework\src\traditional\proc\p18f67j60.asm
                PORTGbits   0x000f86       data     extern E:\c18v3.46\pic18-lt\cxx-framework\src\traditional\proc\p18f67j60.asm
                    PORTG   0x000f86       data     extern E:\c18v3.46\pic18-lt\cxx-framework\src\traditional\proc\p18f67j60.asm
                     LATA   0x000f89       data     extern E:\c18v3.46\pic18-lt\cxx-framework\src\traditional\proc\p18f67j60.asm
                 LATAbits   0x000f89       data     extern E:\c18v3.46\pic18-lt\cxx-framework\src\traditional\proc\p18f67j60.asm
                     LATB   0x000f8a       data     extern E:\c18v3.46\pic18-lt\cxx-framework\src\traditional\proc\p18f67j60.asm
                 LATBbits   0x000f8a       data     extern E:\c18v3.46\pic18-lt\cxx-framework\src\traditional\proc\p18f67j60.asm
                     LATC   0x000f8b       data     extern E:\c18v3.46\pic18-lt\cxx-framework\src\traditional\proc\p18f67j60.asm
                 LATCbits   0x000f8b       data     extern E:\c18v3.46\pic18-lt\cxx-framework\src\traditional\proc\p18f67j60.asm
                 LATDbits   0x000f8c       data     extern E:\c18v3.46\pic18-lt\cxx-framework\src\traditional\proc\p18f67j60.asm
                     LATD   0x000f8c       data     extern E:\c18v3.46\pic18-lt\cxx-framework\src\traditional\proc\p18f67j60.asm
                 LATEbits   0x000f8d       data     extern E:\c18v3.46\pic18-lt\cxx-framework\src\traditional\proc\p18f67j60.asm
                     LATE   0x000f8d       data     extern E:\c18v3.46\pic18-lt\cxx-framework\src\traditional\proc\p18f67j60.asm
                 LATFbits   0x000f8e       data     extern E:\c18v3.46\pic18-lt\cxx-framework\src\traditional\proc\p18f67j60.asm
                     LATF   0x000f8e       data     extern E:\c18v3.46\pic18-lt\cxx-framework\src\traditional\proc\p18f67j60.asm
                 LATGbits   0x000f8f       data     extern E:\c18v3.46\pic18-lt\cxx-framework\src\traditional\proc\p18f67j60.asm
                     LATG   0x000f8f       data     extern E:\c18v3.46\pic18-lt\cxx-framework\src\traditional\proc\p18f67j60.asm
                     DDRA   0x000f92       data     extern E:\c18v3.46\pic18-lt\cxx-framework\src\traditional\proc\p18f67j60.asm
                 DDRAbits   0x000f92       data     extern E:\c18v3.46\pic18-lt\cxx-framework\src\traditional\proc\p18f67j60.asm
                TRISAbits   0x000f92       data     extern E:\c18v3.46\pic18-lt\cxx-framework\src\traditional\proc\p18f67j60.asm
                    TRISA   0x000f92       data     extern E:\c18v3.46\pic18-lt\cxx-framework\src\traditional\proc\p18f67j60.asm
                    TRISB   0x000f93       data     extern E:\c18v3.46\pic18-lt\cxx-framework\src\traditional\proc\p18f67j60.asm
                     DDRB   0x000f93       data     extern E:\c18v3.46\pic18-lt\cxx-framework\src\traditional\proc\p18f67j60.asm
                TRISBbits   0x000f93       data     extern E:\c18v3.46\pic18-lt\cxx-framework\src\traditional\proc\p18f67j60.asm
                 DDRBbits   0x000f93       data     extern E:\c18v3.46\pic18-lt\cxx-framework\src\traditional\proc\p18f67j60.asm
                TRISCbits   0x000f94       data     extern E:\c18v3.46\pic18-lt\cxx-framework\src\traditional\proc\p18f67j60.asm
                    TRISC   0x000f94       data     extern E:\c18v3.46\pic18-lt\cxx-framework\src\traditional\proc\p18f67j60.asm
                     DDRC   0x000f94       data     extern E:\c18v3.46\pic18-lt\cxx-framework\src\traditional\proc\p18f67j60.asm
                 DDRCbits   0x000f94       data     extern E:\c18v3.46\pic18-lt\cxx-framework\src\traditional\proc\p18f67j60.asm
                     DDRD   0x000f95       data     extern E:\c18v3.46\pic18-lt\cxx-framework\src\traditional\proc\p18f67j60.asm
                 DDRDbits   0x000f95       data     extern E:\c18v3.46\pic18-lt\cxx-framework\src\traditional\proc\p18f67j60.asm
                TRISDbits   0x000f95       data     extern E:\c18v3.46\pic18-lt\cxx-framework\src\traditional\proc\p18f67j60.asm
                    TRISD   0x000f95       data     extern E:\c18v3.46\pic18-lt\cxx-framework\src\traditional\proc\p18f67j60.asm
                     DDRE   0x000f96       data     extern E:\c18v3.46\pic18-lt\cxx-framework\src\traditional\proc\p18f67j60.asm
                 DDREbits   0x000f96       data     extern E:\c18v3.46\pic18-lt\cxx-framework\src\traditional\proc\p18f67j60.asm
                TRISEbits   0x000f96       data     extern E:\c18v3.46\pic18-lt\cxx-framework\src\traditional\proc\p18f67j60.asm
                    TRISE   0x000f96       data     extern E:\c18v3.46\pic18-lt\cxx-framework\src\traditional\proc\p18f67j60.asm
                TRISFbits   0x000f97       data     extern E:\c18v3.46\pic18-lt\cxx-framework\src\traditional\proc\p18f67j60.asm
                    TRISF   0x000f97       data     extern E:\c18v3.46\pic18-lt\cxx-framework\src\traditional\proc\p18f67j60.asm
                     DDRF   0x000f97       data     extern E:\c18v3.46\pic18-lt\cxx-framework\src\traditional\proc\p18f67j60.asm
                 DDRFbits   0x000f97       data     extern E:\c18v3.46\pic18-lt\cxx-framework\src\traditional\proc\p18f67j60.asm
                TRISGbits   0x000f98       data     extern E:\c18v3.46\pic18-lt\cxx-framework\src\traditional\proc\p18f67j60.asm
                    TRISG   0x000f98       data     extern E:\c18v3.46\pic18-lt\cxx-framework\src\traditional\proc\p18f67j60.asm
                 DDRGbits   0x000f98       data     extern E:\c18v3.46\pic18-lt\cxx-framework\src\traditional\proc\p18f67j60.asm
                     DDRG   0x000f98       data     extern E:\c18v3.46\pic18-lt\cxx-framework\src\traditional\proc\p18f67j60.asm
              OSCTUNEbits   0x000f9b       data     extern E:\c18v3.46\pic18-lt\cxx-framework\src\traditional\proc\p18f67j60.asm
                  OSCTUNE   0x000f9b       data     extern E:\c18v3.46\pic18-lt\cxx-framework\src\traditional\proc\p18f67j60.asm
                 PIE1bits   0x000f9d       data     extern E:\c18v3.46\pic18-lt\cxx-framework\src\traditional\proc\p18f67j60.asm
                     PIE1   0x000f9d       data     extern E:\c18v3.46\pic18-lt\cxx-framework\src\traditional\proc\p18f67j60.asm
                     PIR1   0x000f9e       data     extern E:\c18v3.46\pic18-lt\cxx-framework\src\traditional\proc\p18f67j60.asm
                 PIR1bits   0x000f9e       data     extern E:\c18v3.46\pic18-lt\cxx-framework\src\traditional\proc\p18f67j60.asm
                     IPR1   0x000f9f       data     extern E:\c18v3.46\pic18-lt\cxx-framework\src\traditional\proc\p18f67j60.asm
                 IPR1bits   0x000f9f       data     extern E:\c18v3.46\pic18-lt\cxx-framework\src\traditional\proc\p18f67j60.asm
                     PIE2   0x000fa0       data     extern E:\c18v3.46\pic18-lt\cxx-framework\src\traditional\proc\p18f67j60.asm
                 PIE2bits   0x000fa0       data     extern E:\c18v3.46\pic18-lt\cxx-framework\src\traditional\proc\p18f67j60.asm
                 PIR2bits   0x000fa1       data     extern E:\c18v3.46\pic18-lt\cxx-framework\src\traditional\proc\p18f67j60.asm
                     PIR2   0x000fa1       data     extern E:\c18v3.46\pic18-lt\cxx-framework\src\traditional\proc\p18f67j60.asm
                 IPR2bits   0x000fa2       data     extern E:\c18v3.46\pic18-lt\cxx-framework\src\traditional\proc\p18f67j60.asm
                     IPR2   0x000fa2       data     extern E:\c18v3.46\pic18-lt\cxx-framework\src\traditional\proc\p18f67j60.asm
                 PIE3bits   0x000fa3       data     extern E:\c18v3.46\pic18-lt\cxx-framework\src\traditional\proc\p18f67j60.asm
                     PIE3   0x000fa3       data     extern E:\c18v3.46\pic18-lt\cxx-framework\src\traditional\proc\p18f67j60.asm
                     PIR3   0x000fa4       data     extern E:\c18v3.46\pic18-lt\cxx-framework\src\traditional\proc\p18f67j60.asm
                 PIR3bits   0x000fa4       data     extern E:\c18v3.46\pic18-lt\cxx-framework\src\traditional\proc\p18f67j60.asm
                 IPR3bits   0x000fa5       data     extern E:\c18v3.46\pic18-lt\cxx-framework\src\traditional\proc\p18f67j60.asm
                     IPR3   0x000fa5       data     extern E:\c18v3.46\pic18-lt\cxx-framework\src\traditional\proc\p18f67j60.asm
               EECON1bits   0x000fa6       data     extern E:\c18v3.46\pic18-lt\cxx-framework\src\traditional\proc\p18f67j60.asm
                   EECON1   0x000fa6       data     extern E:\c18v3.46\pic18-lt\cxx-framework\src\traditional\proc\p18f67j60.asm
                   EECON2   0x000fa7       data     extern E:\c18v3.46\pic18-lt\cxx-framework\src\traditional\proc\p18f67j60.asm
                    RCSTA   0x000fab       data     extern E:\c18v3.46\pic18-lt\cxx-framework\src\traditional\proc\p18f67j60.asm
                   RCSTA1   0x000fab       data     extern E:\c18v3.46\pic18-lt\cxx-framework\src\traditional\proc\p18f67j60.asm
               RCSTA1bits   0x000fab       data     extern E:\c18v3.46\pic18-lt\cxx-framework\src\traditional\proc\p18f67j60.asm
                RCSTAbits   0x000fab       data     extern E:\c18v3.46\pic18-lt\cxx-framework\src\traditional\proc\p18f67j60.asm
                    TXSTA   0x000fac       data     extern E:\c18v3.46\pic18-lt\cxx-framework\src\traditional\proc\p18f67j60.asm
                   TXSTA1   0x000fac       data     extern E:\c18v3.46\pic18-lt\cxx-framework\src\traditional\proc\p18f67j60.asm
               TXSTA1bits   0x000fac       data     extern E:\c18v3.46\pic18-lt\cxx-framework\src\traditional\proc\p18f67j60.asm
                TXSTAbits   0x000fac       data     extern E:\c18v3.46\pic18-lt\cxx-framework\src\traditional\proc\p18f67j60.asm
                   TXREG1   0x000fad       data     extern E:\c18v3.46\pic18-lt\cxx-framework\src\traditional\proc\p18f67j60.asm
                    TXREG   0x000fad       data     extern E:\c18v3.46\pic18-lt\cxx-framework\src\traditional\proc\p18f67j60.asm
                    RCREG   0x000fae       data     extern E:\c18v3.46\pic18-lt\cxx-framework\src\traditional\proc\p18f67j60.asm
                   RCREG1   0x000fae       data     extern E:\c18v3.46\pic18-lt\cxx-framework\src\traditional\proc\p18f67j60.asm
                    SPBRG   0x000faf       data     extern E:\c18v3.46\pic18-lt\cxx-framework\src\traditional\proc\p18f67j60.asm
                   SPBRG1   0x000faf       data     extern E:\c18v3.46\pic18-lt\cxx-framework\src\traditional\proc\p18f67j60.asm
                    T3CON   0x000fb1       data     extern E:\c18v3.46\pic18-lt\cxx-framework\src\traditional\proc\p18f67j60.asm
                T3CONbits   0x000fb1       data     extern E:\c18v3.46\pic18-lt\cxx-framework\src\traditional\proc\p18f67j60.asm
                    TMR3L   0x000fb2       data     extern E:\c18v3.46\pic18-lt\cxx-framework\src\traditional\proc\p18f67j60.asm
                    TMR3H   0x000fb3       data     extern E:\c18v3.46\pic18-lt\cxx-framework\src\traditional\proc\p18f67j60.asm
                    CMCON   0x000fb4       data     extern E:\c18v3.46\pic18-lt\cxx-framework\src\traditional\proc\p18f67j60.asm
                CMCONbits   0x000fb4       data     extern E:\c18v3.46\pic18-lt\cxx-framework\src\traditional\proc\p18f67j60.asm
                   CVRCON   0x000fb5       data     extern E:\c18v3.46\pic18-lt\cxx-framework\src\traditional\proc\p18f67j60.asm
               CVRCONbits   0x000fb5       data     extern E:\c18v3.46\pic18-lt\cxx-framework\src\traditional\proc\p18f67j60.asm
                  ECCP1AS   0x000fb6       data     extern E:\c18v3.46\pic18-lt\cxx-framework\src\traditional\proc\p18f67j60.asm
              ECCP1ASbits   0x000fb6       data     extern E:\c18v3.46\pic18-lt\cxx-framework\src\traditional\proc\p18f67j60.asm
             ECCP3CONbits   0x000fb7       data     extern E:\c18v3.46\pic18-lt\cxx-framework\src\traditional\proc\p18f67j60.asm
                 ECCP3CON   0x000fb7       data     extern E:\c18v3.46\pic18-lt\cxx-framework\src\traditional\proc\p18f67j60.asm
              CCP3CONbits   0x000fb7       data     extern E:\c18v3.46\pic18-lt\cxx-framework\src\traditional\proc\p18f67j60.asm
                  CCP3CON   0x000fb7       data     extern E:\c18v3.46\pic18-lt\cxx-framework\src\traditional\proc\p18f67j60.asm
                    CCPR3   0x000fb8       data     extern E:\c18v3.46\pic18-lt\cxx-framework\src\traditional\proc\p18f67j60.asm
                   CCPR3L   0x000fb8       data     extern E:\c18v3.46\pic18-lt\cxx-framework\src\traditional\proc\p18f67j60.asm
                   CCPR3H   0x000fb9       data     extern E:\c18v3.46\pic18-lt\cxx-framework\src\traditional\proc\p18f67j60.asm
                 ECCP2CON   0x000fba       data     extern E:\c18v3.46\pic18-lt\cxx-framework\src\traditional\proc\p18f67j60.asm
             ECCP2CONbits   0x000fba       data     extern E:\c18v3.46\pic18-lt\cxx-framework\src\traditional\proc\p18f67j60.asm
                  CCP2CON   0x000fba       data     extern E:\c18v3.46\pic18-lt\cxx-framework\src\traditional\proc\p18f67j60.asm
              CCP2CONbits   0x000fba       data     extern E:\c18v3.46\pic18-lt\cxx-framework\src\traditional\proc\p18f67j60.asm
                    CCPR2   0x000fbb       data     extern E:\c18v3.46\pic18-lt\cxx-framework\src\traditional\proc\p18f67j60.asm
                   CCPR2L   0x000fbb       data     extern E:\c18v3.46\pic18-lt\cxx-framework\src\traditional\proc\p18f67j60.asm
                   CCPR2H   0x000fbc       data     extern E:\c18v3.46\pic18-lt\cxx-framework\src\traditional\proc\p18f67j60.asm
                 ECCP1CON   0x000fbd       data     extern E:\c18v3.46\pic18-lt\cxx-framework\src\traditional\proc\p18f67j60.asm
             ECCP1CONbits   0x000fbd       data     extern E:\c18v3.46\pic18-lt\cxx-framework\src\traditional\proc\p18f67j60.asm
                  CCP1CON   0x000fbd       data     extern E:\c18v3.46\pic18-lt\cxx-framework\src\traditional\proc\p18f67j60.asm
              CCP1CONbits   0x000fbd       data     extern E:\c18v3.46\pic18-lt\cxx-framework\src\traditional\proc\p18f67j60.asm
                    CCPR1   0x000fbe       data     extern E:\c18v3.46\pic18-lt\cxx-framework\src\traditional\proc\p18f67j60.asm
                   CCPR1L   0x000fbe       data     extern E:\c18v3.46\pic18-lt\cxx-framework\src\traditional\proc\p18f67j60.asm
                   CCPR1H   0x000fbf       data     extern E:\c18v3.46\pic18-lt\cxx-framework\src\traditional\proc\p18f67j60.asm
               ADCON2bits   0x000fc0       data     extern E:\c18v3.46\pic18-lt\cxx-framework\src\traditional\proc\p18f67j60.asm
                   ADCON2   0x000fc0       data     extern E:\c18v3.46\pic18-lt\cxx-framework\src\traditional\proc\p18f67j60.asm
               ADCON1bits   0x000fc1       data     extern E:\c18v3.46\pic18-lt\cxx-framework\src\traditional\proc\p18f67j60.asm
                   ADCON1   0x000fc1       data     extern E:\c18v3.46\pic18-lt\cxx-framework\src\traditional\proc\p18f67j60.asm
                   ADCON0   0x000fc2       data     extern E:\c18v3.46\pic18-lt\cxx-framework\src\traditional\proc\p18f67j60.asm
               ADCON0bits   0x000fc2       data     extern E:\c18v3.46\pic18-lt\cxx-framework\src\traditional\proc\p18f67j60.asm
                    ADRES   0x000fc3       data     extern E:\c18v3.46\pic18-lt\cxx-framework\src\traditional\proc\p18f67j60.asm
                   ADRESL   0x000fc3       data     extern E:\c18v3.46\pic18-lt\cxx-framework\src\traditional\proc\p18f67j60.asm
                   ADRESH   0x000fc4       data     extern E:\c18v3.46\pic18-lt\cxx-framework\src\traditional\proc\p18f67j60.asm
                 SSP1CON2   0x000fc5       data     extern E:\c18v3.46\pic18-lt\cxx-framework\src\traditional\proc\p18f67j60.asm
             SSP1CON2bits   0x000fc5       data     extern E:\c18v3.46\pic18-lt\cxx-framework\src\traditional\proc\p18f67j60.asm
                  SSPCON2   0x000fc5       data     extern E:\c18v3.46\pic18-lt\cxx-framework\src\traditional\proc\p18f67j60.asm
              SSPCON2bits   0x000fc5       data     extern E:\c18v3.46\pic18-lt\cxx-framework\src\traditional\proc\p18f67j60.asm
                 SSP1CON1   0x000fc6       data     extern E:\c18v3.46\pic18-lt\cxx-framework\src\traditional\proc\p18f67j60.asm
             SSP1CON1bits   0x000fc6       data     extern E:\c18v3.46\pic18-lt\cxx-framework\src\traditional\proc\p18f67j60.asm
              SSPCON1bits   0x000fc6       data     extern E:\c18v3.46\pic18-lt\cxx-framework\src\traditional\proc\p18f67j60.asm
                  SSPCON1   0x000fc6       data     extern E:\c18v3.46\pic18-lt\cxx-framework\src\traditional\proc\p18f67j60.asm
              SSPSTATbits   0x000fc7       data     extern E:\c18v3.46\pic18-lt\cxx-framework\src\traditional\proc\p18f67j60.asm
                 SSP1STAT   0x000fc7       data     extern E:\c18v3.46\pic18-lt\cxx-framework\src\traditional\proc\p18f67j60.asm
             SSP1STATbits   0x000fc7       data     extern E:\c18v3.46\pic18-lt\cxx-framework\src\traditional\proc\p18f67j60.asm
                  SSPSTAT   0x000fc7       data     extern E:\c18v3.46\pic18-lt\cxx-framework\src\traditional\proc\p18f67j60.asm
                  SSP1ADD   0x000fc8       data     extern E:\c18v3.46\pic18-lt\cxx-framework\src\traditional\proc\p18f67j60.asm
                   SSPADD   0x000fc8       data     extern E:\c18v3.46\pic18-lt\cxx-framework\src\traditional\proc\p18f67j60.asm
                  SSP1BUF   0x000fc9       data     extern E:\c18v3.46\pic18-lt\cxx-framework\src\traditional\proc\p18f67j60.asm
                   SSPBUF   0x000fc9       data     extern E:\c18v3.46\pic18-lt\cxx-framework\src\traditional\proc\p18f67j60.asm
                    T2CON   0x000fca       data     extern E:\c18v3.46\pic18-lt\cxx-framework\src\traditional\proc\p18f67j60.asm
                T2CONbits   0x000fca       data     extern E:\c18v3.46\pic18-lt\cxx-framework\src\traditional\proc\p18f67j60.asm
                      PR2   0x000fcb       data     extern E:\c18v3.46\pic18-lt\cxx-framework\src\traditional\proc\p18f67j60.asm
                     TMR2   0x000fcc       data     extern E:\c18v3.46\pic18-lt\cxx-framework\src\traditional\proc\p18f67j60.asm
                    T1CON   0x000fcd       data     extern E:\c18v3.46\pic18-lt\cxx-framework\src\traditional\proc\p18f67j60.asm
                T1CONbits   0x000fcd       data     extern E:\c18v3.46\pic18-lt\cxx-framework\src\traditional\proc\p18f67j60.asm
                    TMR1L   0x000fce       data     extern E:\c18v3.46\pic18-lt\cxx-framework\src\traditional\proc\p18f67j60.asm
                    TMR1H   0x000fcf       data     extern E:\c18v3.46\pic18-lt\cxx-framework\src\traditional\proc\p18f67j60.asm
                     RCON   0x000fd0       data     extern E:\c18v3.46\pic18-lt\cxx-framework\src\traditional\proc\p18f67j60.asm
                 RCONbits   0x000fd0       data     extern E:\c18v3.46\pic18-lt\cxx-framework\src\traditional\proc\p18f67j60.asm
                   WDTCON   0x000fd1       data     extern E:\c18v3.46\pic18-lt\cxx-framework\src\traditional\proc\p18f67j60.asm
               WDTCONbits   0x000fd1       data     extern E:\c18v3.46\pic18-lt\cxx-framework\src\traditional\proc\p18f67j60.asm
                ECON1bits   0x000fd2       data     extern E:\c18v3.46\pic18-lt\cxx-framework\src\traditional\proc\p18f67j60.asm
                    ECON1   0x000fd2       data     extern E:\c18v3.46\pic18-lt\cxx-framework\src\traditional\proc\p18f67j60.asm
               OSCCONbits   0x000fd3       data     extern E:\c18v3.46\pic18-lt\cxx-framework\src\traditional\proc\p18f67j60.asm
                   OSCCON   0x000fd3       data     extern E:\c18v3.46\pic18-lt\cxx-framework\src\traditional\proc\p18f67j60.asm
                    T0CON   0x000fd5       data     extern E:\c18v3.46\pic18-lt\cxx-framework\src\traditional\proc\p18f67j60.asm
                T0CONbits   0x000fd5       data     extern E:\c18v3.46\pic18-lt\cxx-framework\src\traditional\proc\p18f67j60.asm
                    TMR0L   0x000fd6       data     extern E:\c18v3.46\pic18-lt\cxx-framework\src\traditional\proc\p18f67j60.asm
                    TMR0H   0x000fd7       data     extern E:\c18v3.46\pic18-lt\cxx-framework\src\traditional\proc\p18f67j60.asm
                   STATUS   0x000fd8       data     extern E:\c18v3.46\pic18-lt\cxx-framework\src\traditional\proc\p18f67j60.asm
               STATUSbits   0x000fd8       data     extern E:\c18v3.46\pic18-lt\cxx-framework\src\traditional\proc\p18f67j60.asm
                    FSR2L   0x000fd9       data     extern E:\c18v3.46\pic18-lt\cxx-framework\src\traditional\proc\p18f67j60.asm
                     FSR2   0x000fd9       data     extern E:\c18v3.46\pic18-lt\cxx-framework\src\traditional\proc\p18f67j60.asm
                    FSR2H   0x000fda       data     extern E:\c18v3.46\pic18-lt\cxx-framework\src\traditional\proc\p18f67j60.asm
                   PLUSW2   0x000fdb       data     extern E:\c18v3.46\pic18-lt\cxx-framework\src\traditional\proc\p18f67j60.asm
                  PREINC2   0x000fdc       data     extern E:\c18v3.46\pic18-lt\cxx-framework\src\traditional\proc\p18f67j60.asm
                 POSTDEC2   0x000fdd       data     extern E:\c18v3.46\pic18-lt\cxx-framework\src\traditional\proc\p18f67j60.asm
                 POSTINC2   0x000fde       data     extern E:\c18v3.46\pic18-lt\cxx-framework\src\traditional\proc\p18f67j60.asm
                    INDF2   0x000fdf       data     extern E:\c18v3.46\pic18-lt\cxx-framework\src\traditional\proc\p18f67j60.asm
                      BSR   0x000fe0       data     extern E:\c18v3.46\pic18-lt\cxx-framework\src\traditional\proc\p18f67j60.asm
                    FSR1L   0x000fe1       data     extern E:\c18v3.46\pic18-lt\cxx-framework\src\traditional\proc\p18f67j60.asm
                     FSR1   0x000fe1       data     extern E:\c18v3.46\pic18-lt\cxx-framework\src\traditional\proc\p18f67j60.asm
                    FSR1H   0x000fe2       data     extern E:\c18v3.46\pic18-lt\cxx-framework\src\traditional\proc\p18f67j60.asm
                   PLUSW1   0x000fe3       data     extern E:\c18v3.46\pic18-lt\cxx-framework\src\traditional\proc\p18f67j60.asm
                  PREINC1   0x000fe4       data     extern E:\c18v3.46\pic18-lt\cxx-framework\src\traditional\proc\p18f67j60.asm
                 POSTDEC1   0x000fe5       data     extern E:\c18v3.46\pic18-lt\cxx-framework\src\traditional\proc\p18f67j60.asm
                 POSTINC1   0x000fe6       data     extern E:\c18v3.46\pic18-lt\cxx-framework\src\traditional\proc\p18f67j60.asm
                    INDF1   0x000fe7       data     extern E:\c18v3.46\pic18-lt\cxx-framework\src\traditional\proc\p18f67j60.asm
                     WREG   0x000fe8       data     extern E:\c18v3.46\pic18-lt\cxx-framework\src\traditional\proc\p18f67j60.asm
                     FSR0   0x000fe9       data     extern E:\c18v3.46\pic18-lt\cxx-framework\src\traditional\proc\p18f67j60.asm
                    FSR0L   0x000fe9       data     extern E:\c18v3.46\pic18-lt\cxx-framework\src\traditional\proc\p18f67j60.asm
                    FSR0H   0x000fea       data     extern E:\c18v3.46\pic18-lt\cxx-framework\src\traditional\proc\p18f67j60.asm
                   PLUSW0   0x000feb       data     extern E:\c18v3.46\pic18-lt\cxx-framework\src\traditional\proc\p18f67j60.asm
                  PREINC0   0x000fec       data     extern E:\c18v3.46\pic18-lt\cxx-framework\src\traditional\proc\p18f67j60.asm
                 POSTDEC0   0x000fed       data     extern E:\c18v3.46\pic18-lt\cxx-framework\src\traditional\proc\p18f67j60.asm
                 POSTINC0   0x000fee       data     extern E:\c18v3.46\pic18-lt\cxx-framework\src\traditional\proc\p18f67j60.asm
                    INDF0   0x000fef       data     extern E:\c18v3.46\pic18-lt\cxx-framework\src\traditional\proc\p18f67j60.asm
              INTCON3bits   0x000ff0       data     extern E:\c18v3.46\pic18-lt\cxx-framework\src\traditional\proc\p18f67j60.asm
                  INTCON3   0x000ff0       data     extern E:\c18v3.46\pic18-lt\cxx-framework\src\traditional\proc\p18f67j60.asm
              INTCON2bits   0x000ff1       data     extern E:\c18v3.46\pic18-lt\cxx-framework\src\traditional\proc\p18f67j60.asm
                  INTCON2   0x000ff1       data     extern E:\c18v3.46\pic18-lt\cxx-framework\src\traditional\proc\p18f67j60.asm
               INTCONbits   0x000ff2       data     extern E:\c18v3.46\pic18-lt\cxx-framework\src\traditional\proc\p18f67j60.asm
                   INTCON   0x000ff2       data     extern E:\c18v3.46\pic18-lt\cxx-framework\src\traditional\proc\p18f67j60.asm
                    PRODL   0x000ff3       data     extern E:\c18v3.46\pic18-lt\cxx-framework\src\traditional\proc\p18f67j60.asm
                     PROD   0x000ff3       data     extern E:\c18v3.46\pic18-lt\cxx-framework\src\traditional\proc\p18f67j60.asm
                    PRODH   0x000ff4       data     extern E:\c18v3.46\pic18-lt\cxx-framework\src\traditional\proc\p18f67j60.asm
                   TABLAT   0x000ff5       data     extern E:\c18v3.46\pic18-lt\cxx-framework\src\traditional\proc\p18f67j60.asm
                  TBLPTRL   0x000ff6       data     extern E:\c18v3.46\pic18-lt\cxx-framework\src\traditional\proc\p18f67j60.asm
                   TBLPTR   0x000ff6       data     extern E:\c18v3.46\pic18-lt\cxx-framework\src\traditional\proc\p18f67j60.asm
                  TBLPTRH   0x000ff7       data     extern E:\c18v3.46\pic18-lt\cxx-framework\src\traditional\proc\p18f67j60.asm
                  TBLPTRU   0x000ff8       data     extern E:\c18v3.46\pic18-lt\cxx-framework\src\traditional\proc\p18f67j60.asm
                      PCL   0x000ff9       data     extern E:\c18v3.46\pic18-lt\cxx-framework\src\traditional\proc\p18f67j60.asm
                       PC   0x000ff9       data     extern E:\c18v3.46\pic18-lt\cxx-framework\src\traditional\proc\p18f67j60.asm
                   PCLATH   0x000ffa       data     extern E:\c18v3.46\pic18-lt\cxx-framework\src\traditional\proc\p18f67j60.asm
                   PCLATU   0x000ffb       data     extern E:\c18v3.46\pic18-lt\cxx-framework\src\traditional\proc\p18f67j60.asm
               STKPTRbits   0x000ffc       data     extern E:\c18v3.46\pic18-lt\cxx-framework\src\traditional\proc\p18f67j60.asm
                   STKPTR   0x000ffc       data     extern E:\c18v3.46\pic18-lt\cxx-framework\src\traditional\proc\p18f67j60.asm
                      TOS   0x000ffd       data     extern E:\c18v3.46\pic18-lt\cxx-framework\src\traditional\proc\p18f67j60.asm
                     TOSL   0x000ffd       data     extern E:\c18v3.46\pic18-lt\cxx-framework\src\traditional\proc\p18f67j60.asm
                     TOSH   0x000ffe       data     extern E:\c18v3.46\pic18-lt\cxx-framework\src\traditional\proc\p18f67j60.asm
                     TOSU   0x000fff       data     extern E:\c18v3.46\pic18-lt\cxx-framework\src\traditional\proc\p18f67j60.asm


